******************************************************************************
                  TI ARM Linker Unix v20.2.5                   
******************************************************************************
>> Linked Tue Nov 19 16:53:29 2024

OUTPUT FILE NAME:   <harkkatyo.out>
ENTRY POINT SYMBOL: "ResetISR"  address: 00008161


MEMORY CONFIGURATION

         name            origin    length      used     unused   attr    fill
----------------------  --------  ---------  --------  --------  ----  --------
  FLASH                 00000000   00020000  00009c56  000163aa  R  X
  SRAM                  20000000   00005000  00002a57  000025a9  RW X


SEGMENT ALLOCATION MAP

run origin  load origin   length   init length attrs members
----------  ----------- ---------- ----------- ----- -------
00000000    00000000    0000003c   0000003c    r--
  00000000    00000000    0000003c   0000003c    r-- .resetVecs
00000100    00000100    00009bd0   00009bd0    r-x
  00000100    00000100    0000003c   0000003c    r-- .const:ti_sysbios_knl_Task_Object__PARAMS__C
  0000013c    0000013c    00000034   00000034    r-- .const:ti_sysbios_knl_Mailbox_Object__PARAMS__C
  00000170    00000170    00000030   00000030    r-- .const:ti_sysbios_family_arm_m3_Hwi_Object__PARAMS__C
  000001a0    000001a0    0000002c   0000002c    r-- .const:ti_sysbios_hal_Hwi_Object__PARAMS__C
  000001cc    000001cc    00000028   00000028    r-- .const:ti_sysbios_heaps_HeapMem_Module__FXNS__C
  000001f4    000001f4    00000028   00000028    r-- .const:ti_sysbios_knl_Swi_Object__PARAMS__C
  0000021c    0000021c    00000024   00000024    r-- .const:ti_sysbios_gates_GateHwi_Module__FXNS__C
  00000240    00000240    00000024   00000024    r-- .const:ti_sysbios_gates_GateMutex_Module__FXNS__C
  00000264    00000264    00000024   00000024    r-- .const:ti_sysbios_heaps_HeapMem_Object__PARAMS__C
  00000288    00000288    00000024   00000024    r-- .const:ti_sysbios_knl_Clock_Object__PARAMS__C
  000002ac    000002ac    00000024   00000024    r-- .const:ti_sysbios_knl_Semaphore_Object__PARAMS__C
  000002d0    000002d0    00000020   00000020    r-- .const:ti_sysbios_family_arm_m3_Hwi_Object__DESC__C
  000002f0    000002f0    00000020   00000020    r-- .const:ti_sysbios_gates_GateHwi_Object__DESC__C
  00000310    00000310    00000020   00000020    r-- .const:ti_sysbios_gates_GateMutex_Object__DESC__C
  00000330    00000330    00000020   00000020    r-- .const:ti_sysbios_hal_Hwi_Object__DESC__C
  00000350    00000350    00000020   00000020    r-- .const:ti_sysbios_heaps_HeapMem_Object__DESC__C
  00000370    00000370    00000020   00000020    r-- .const:ti_sysbios_knl_Clock_Object__DESC__C
  00000390    00000390    00000020   00000020    r-- .const:ti_sysbios_knl_Mailbox_Object__DESC__C
  000003b0    000003b0    00000020   00000020    r-- .const:ti_sysbios_knl_Queue_Object__DESC__C
  000003d0    000003d0    00000020   00000020    r-- .const:ti_sysbios_knl_Semaphore_Object__DESC__C
  000003f0    000003f0    00000020   00000020    r-- .const:ti_sysbios_knl_Swi_Object__DESC__C
  00000410    00000410    00000020   00000020    r-- .const:ti_sysbios_knl_Task_Object__DESC__C
  00000430    00000430    00000018   00000018    r-- .const:ti_sysbios_gates_GateHwi_Object__PARAMS__C
  00000448    00000448    00000018   00000018    r-- .const:ti_sysbios_gates_GateMutex_Object__PARAMS__C
  00000460    00000460    00000018   00000018    r-- .const:ti_sysbios_knl_Queue_Object__PARAMS__C
  00000478    00000478    00000008   00000008    r-- .const:ti_sysbios_knl_Idle_funcList__C
  00000484    00000484    00000004   00000004    r-- .const:ti_sysbios_family_arm_cc26xx_Timer_startupNeeded__C
  00000488    00000488    00000004   00000004    r-- .const:ti_sysbios_family_arm_m3_Hwi_E_alreadyDefined__C
  0000048c    0000048c    00000004   00000004    r-- .const:ti_sysbios_family_arm_m3_Hwi_E_hwiLimitExceeded__C
  00000490    00000490    00000004   00000004    r-- .const:ti_sysbios_family_arm_m3_Hwi_NUM_INTERRUPTS__C
  00000494    00000494    00000004   00000004    r-- .const:ti_sysbios_family_arm_m3_Hwi_Object__count__C
  00000498    00000498    00000004   00000004    r-- .const:ti_sysbios_family_arm_m3_Hwi_Object__table__C
  0000049c    0000049c    00000004   00000004    r-- .const:ti_sysbios_family_arm_m3_Hwi_ccr__C
  000004a0    000004a0    00000004   00000004    r-- .const:ti_sysbios_family_arm_m3_Hwi_excHandlerFunc__C
  000004a4    000004a4    00000004   00000004    r-- .const:ti_sysbios_family_arm_m3_Hwi_nullIsrFunc__C
  000004a8    000004a8    00000004   00000004    r-- .const:ti_sysbios_family_arm_m3_Hwi_numSparseInterrupts__C
  000004ac    000004ac    00000004   00000004    r-- .const:ti_sysbios_family_arm_m3_Hwi_priGroup__C
  000004b0    000004b0    00000004   00000004    r-- .const:ti_sysbios_family_arm_m3_TaskSupport_stackAlignment__C
  000004b4    000004b4    00000004   00000004    r-- .const:ti_sysbios_heaps_HeapMem_E_memory__C
  000004b8    000004b8    00000004   00000004    r-- .const:ti_sysbios_heaps_HeapMem_Module__gateObj__C
  000004bc    000004bc    00000004   00000004    r-- .const:ti_sysbios_heaps_HeapMem_Object__count__C
  000004c0    000004c0    00000004   00000004    r-- .const:ti_sysbios_heaps_HeapMem_Object__table__C
  000004c4    000004c4    00000004   00000004    r-- .const:ti_sysbios_heaps_HeapMem_reqAlign__C
  000004c8    000004c8    00000004   00000004    r-- .const:ti_sysbios_knl_Clock_serviceMargin__C
  000004cc    000004cc    00000004   00000004    r-- .const:ti_sysbios_knl_Mailbox_Object__count__C
  000004d0    000004d0    00000004   00000004    r-- .const:ti_sysbios_knl_Mailbox_Object__table__C
  000004d4    000004d4    00000004   00000004    r-- .const:ti_sysbios_knl_Queue_Object__count__C
  000004d8    000004d8    00000004   00000004    r-- .const:ti_sysbios_knl_Queue_Object__table__C
  000004dc    000004dc    00000004   00000004    r-- .const:ti_sysbios_knl_Swi_Object__count__C
  000004e0    000004e0    00000004   00000004    r-- .const:ti_sysbios_knl_Swi_Object__table__C
  000004e4    000004e4    00000004   00000004    r-- .const:ti_sysbios_knl_Swi_numPriorities__C
  000004e8    000004e8    00000004   00000004    r-- .const:ti_sysbios_knl_Task_Object__count__C
  000004ec    000004ec    00000004   00000004    r-- .const:ti_sysbios_knl_Task_Object__table__C
  000004f0    000004f0    00000004   00000004    r-- .const:ti_sysbios_knl_Task_allBlockedFunc__C
  000004f4    000004f4    00000004   00000004    r-- .const:ti_sysbios_knl_Task_defaultStackHeap__C
  000004f8    000004f8    00000004   00000004    r-- .const:ti_sysbios_knl_Task_defaultStackSize__C
  000004fc    000004fc    00000004   00000004    r-- .const:ti_sysbios_knl_Task_numConstructedTasks__C
  00000502    00000502    00000002   00000002    r-- .const:ti_sysbios_family_arm_cc26xx_Timer_Module__id__C
  00000504    00000504    00000002   00000002    r-- .const:ti_sysbios_family_arm_cc26xx_TimestampProvider_useClockTimer__C
  00000506    00000506    00000002   00000002    r-- .const:ti_sysbios_family_arm_m3_Hwi_Module__id__C
  00000508    00000508    00000002   00000002    r-- .const:ti_sysbios_gates_GateHwi_Module__id__C
  0000050a    0000050a    00000002   00000002    r-- .const:ti_sysbios_gates_GateMutex_Module__id__C
  0000050c    0000050c    00000002   00000002    r-- .const:ti_sysbios_heaps_HeapMem_Module__id__C
  0000050e    0000050e    00000002   00000002    r-- .const:ti_sysbios_knl_Task_initStackFlag__C
  00000510    00000510    00000001   00000001    r-- .const:ti_sysbios_knl_Clock_tickMode__C
  00000514    00000514    00000008   00000008    r-- .const:xdc_runtime_Startup_firstFxns__C
  0000051c    0000051c    00000008   00000008    r-- .const:xdc_runtime_Startup_lastFxns__C
  00000524    00000524    00000004   00000004    r-- .const:xdc_runtime_Assert_E_assertFailed__C
  00000528    00000528    00000004   00000004    r-- .const:xdc_runtime_Error_E_memory__C
  0000052c    0000052c    00000004   00000004    r-- .const:xdc_runtime_Error_policyFxn__C
  00000530    00000530    00000004   00000004    r-- .const:xdc_runtime_IGateProvider_Interface__BASE__C
  00000534    00000534    00000004   00000004    r-- .const:xdc_runtime_IHeap_Interface__BASE__C
  00000538    00000538    00000004   00000004    r-- .const:xdc_runtime_IModule_Interface__BASE__C
  0000053c    0000053c    00000004   00000004    r-- .const:xdc_runtime_Main_Module__diagsEnabled__C
  00000540    00000540    00000004   00000004    r-- .const:xdc_runtime_Main_Module__diagsIncluded__C
  00000544    00000544    00000004   00000004    r-- .const:xdc_runtime_Main_Module__diagsMask__C
  00000548    00000548    00000004   00000004    r-- .const:xdc_runtime_Memory_defaultHeapInstance__C
  0000054c    0000054c    00000004   00000004    r-- .const:xdc_runtime_Startup_execImpl__C
  00000550    00000550    00000004   00000004    r-- .const:xdc_runtime_Startup_maxPasses__C
  00000554    00000554    00000004   00000004    r-- .const:xdc_runtime_Startup_sfxnRts__C
  00000558    00000558    00000004   00000004    r-- .const:xdc_runtime_Startup_sfxnTab__C
  0000055c    0000055c    00000004   00000004    r-- .const:xdc_runtime_Startup_startModsFxn__C
  00000560    00000560    00000004   00000004    r-- .const:xdc_runtime_SysCallback_abortFxn__C
  00000564    00000564    00000004   00000004    r-- .const:xdc_runtime_SysCallback_exitFxn__C
  00000568    00000568    00000004   00000004    r-- .const:xdc_runtime_System_abortFxn__C
  0000056c    0000056c    00000004   00000004    r-- .const:xdc_runtime_System_exitFxn__C
  00000570    00000570    00000004   00000004    r-- .const:xdc_runtime_System_maxAtexitHandlers__C
  00000574    00000574    00000004   00000004    r-- .const:xdc_runtime_Text_charTab__C
  00000578    00000578    00000004   00000004    r-- .const:xdc_runtime_Text_nameEmpty__C
  0000057c    0000057c    00000004   00000004    r-- .const:xdc_runtime_Text_nameStatic__C
  00000580    00000580    00000004   00000004    r-- .const:xdc_runtime_Text_nameUnknown__C
  00000584    00000584    00000002   00000002    r-- .const:xdc_runtime_Main_Module__id__C
  00000586    00000586    00000002   00000002    r-- .const:xdc_runtime_Memory_Module__id__C
  00000588    00000588    00000002   00000002    r-- .const:xdc_runtime_Text_charCnt__C
  0000058a    0000058a    00000002   00000002    r-- .const:xdc_runtime_Text_isLoaded__C
  0000058c    0000058c    00000001   00000001    r-- .const:xdc_runtime_Error_policy__C
  00000590    00000590    00000004   00000004    r-- .const:ti_sysbios_rom_ROM_AONRTCChannelEnable
  00000594    00000594    00000004   00000004    r-- .const:ti_sysbios_rom_ROM_AONRTCCompareValueSet
  00000598    00000598    00000004   00000004    r-- .const:ti_sysbios_rom_ROM_AONRTCCurrentCompareValueGet
  0000059c    0000059c    00000004   00000004    r-- .const:ti_sysbios_rom_ROM_AONRTCEventClear
  000005a0    000005a0    00000004   00000004    r-- .const:ti_sysbios_rom_ROM_ti_sysbios_family_arm_cc26xx_Timer_getCount64__E
  000005a4    000005a4    00000004   00000004    r-- .const:ti_sysbios_rom_ROM_ti_sysbios_family_arm_cc26xx_Timer_getCurrentTick__E
  000005a8    000005a8    00000004   00000004    r-- .const:ti_sysbios_rom_ROM_ti_sysbios_family_arm_cc26xx_Timer_getMaxTicks__E
  000005ac    000005ac    00000004   00000004    r-- .const:ti_sysbios_rom_ROM_ti_sysbios_family_arm_cc26xx_Timer_initDevice__I
  000005b0    000005b0    00000004   00000004    r-- .const:ti_sysbios_rom_ROM_ti_sysbios_family_arm_cc26xx_Timer_setNextTick__E
  000005b4    000005b4    00000004   00000004    r-- .const:ti_sysbios_rom_ROM_ti_sysbios_family_arm_cc26xx_Timer_setThreshold__I
  000005b8    000005b8    00000004   00000004    r-- .const:ti_sysbios_rom_ROM_ti_sysbios_family_arm_cc26xx_Timer_start__E
  000005bc    000005bc    00000004   00000004    r-- .const:ti_sysbios_rom_ROM_ti_sysbios_family_arm_cc26xx_TimestampProvider_get32__E
  000005c0    000005c0    00000004   00000004    r-- .const:ti_sysbios_rom_ROM_xdc_runtime_Startup_getState__I
  000005c4    000005c4    00000004   00000004    r-- .const:ti_sysbios_rom_ROM_xdc_runtime_System_SupportProxy_abort__E
  000005c8    000005c8    00000004   00000004    r-- .const:ti_sysbios_rom_ROM_xdc_runtime_System_SupportProxy_exit__E
  000005cc    000005cc    00000004   00000004    r-- .const:ti_sysbios_gates_GateMutex_Instance_State_sem__O
  000005d0    000005d0    00000004   00000004    r-- .const:ti_sysbios_knl_Clock_Module_State_clockQ__O
  000005d4    000005d4    00000004   00000004    r-- .const:ti_sysbios_knl_Mailbox_Instance_State_dataQue__O
  000005d8    000005d8    00000004   00000004    r-- .const:ti_sysbios_knl_Mailbox_Instance_State_dataSem__O
  000005dc    000005dc    00000004   00000004    r-- .const:ti_sysbios_knl_Mailbox_Instance_State_freeQue__O
  000005e0    000005e0    00000004   00000004    r-- .const:ti_sysbios_knl_Mailbox_Instance_State_freeSem__O
  000005e4    000005e4    00000004   00000004    r-- .const:ti_sysbios_knl_Semaphore_Instance_State_pendQ__O
  000005e8    000005e8    00000004   00000004    r-- .const:ti_sysbios_knl_Task_Module_State_inactiveQ__O
  000005ec    000005ec    0000904c   0000904c    r-x .text
  00009638    00009638    000003d6   000003d6    r-- .const
  00009a10    00009a10    000002c0   000002c0    r-- .cinit
0001ffa8    0001ffa8    00000058   00000058    r--
  0001ffa8    0001ffa8    00000058   00000058    r-- .ccfg
20000100    20000100    00002698   00000000    rw-
  20000100    20000100    00000044   00000000    rw- .data:ti_sysbios_knl_Task_Module__state__V
  20000144    20000144    00000034   00000000    rw- .data:ti_sysbios_family_arm_m3_Hwi_Module__state__V
  20000178    20000178    0000002c   00000000    rw- .data:ti_sysbios_knl_Clock_Module__state__V
  200001a4    200001a4    00000024   00000000    rw- .data:ti_sysbios_BIOS_Module__state__V
  200001c8    200001c8    0000001c   00000000    rw- .data:ti_sysbios_knl_Swi_Module__state__V
  200001e4    200001e4    00000008   00000000    rw- .data:ti_sysbios_family_arm_cc26xx_Timer_Module__state__V
  200001ec    200001ec    00000004   00000000    rw- .data:ti_sysbios_family_arm_cc26xx_TimestampProvider_Module__state__V
  200001f0    200001f0    00000008   00000000    rw- .data:xdc_runtime_Startup_Module__state__V
  200001f8    200001f8    00000008   00000000    rw- .data:xdc_runtime_System_Module__state__V
  20000200    20000200    00000004   00000000    rw- .data:xdc_runtime_Memory_Module__state__V
  20000208    20000208    0000201b   00000000    rw- .bss
  20002228    20002228    00000570   00000000    rw- .data
20004d00    20004d00    00000300   00000000    rw-
  20004d00    20004d00    00000300   00000000    rw- .stack


SECTION ALLOCATION MAP

 output                                  attributes/
section   page    origin      length       input sections
--------  ----  ----------  ----------   ----------------
.text      0    000005ec    0000904c     
                  000005ec    00000a4e     rtsv7M3_T_le_eabi.lib : _printfi.c.obj (.text:__TI_printfi)
                  0000103a    00000002                           : _lock.c.obj (.text:_nop)
                  0000103c    000009c4                           : e_pow.c.obj (.text:pow)
                  00001a00    00000574     mpu9250.obj (.text:MPU9250SelfTest)
                  00001f74    000004d0     mpu9250.obj (.text:accelgyrocalMPU9250)
                  00002444    00000340     project_main.obj (.text:morseReadTask)
                  00002784    0000033c     rom_sysbios.aem3 : rom_sysbios.obj (.text:xdc_runtime_System_doPrint__I)
                  00002ac0    00000260     rtsv7M3_T_le_eabi.lib : _printfi.c.obj (.text:_pconv_a)
                  00002d20    00000228     drivers_cc26xxware.aem3 : PowerCC26XX.oem3 (.text:Power_sleep)
                  00002f48    00000204     driverlib.lib : sys_ctrl.obj (.text:NOROM_SysCtrlSetRechargeBeforePowerDown)
                  0000314c    00000200     project_main.obj (.text:main)
                  0000334c    000001d0     drivers_cc26xxware.aem3 : PowerCC26XX_calibrateRCOSC.oem3 (.text:calibrateRcoscHf1)
                  0000351c    000001cc     rtsv7M3_T_le_eabi.lib : _printfi.c.obj (.text:_pconv_g)
                  000036e8    000001c4     drivers_cc26xxware.aem3 : PINCC26XX.oem3 (.text:PIN_init)
                  000038ac    000001b6     rtsv7M3_T_le_eabi.lib : fd_add_t2.asm.obj (.text)
                  00003a62    00000002     drivers_cc26xxware.aem3 : PowerCC26XX.oem3 (.text:emptyClockFunc)
                  00003a64    000001a0                             : UARTCC26XX.oem3 (.text:UARTCC26XX_open)
                  00003c04    000001a0     project_main.obj (.text:countDeviation)
                  00003da4    00000184     drivers_cc26xxware.aem3 : PowerCC26XX_calibrateRCOSC.oem3 (.text:PowerCC26XX_doCalibrate)
                  00003f28    00000170     rtsv7M3_T_le_eabi.lib : e_sqrt.c.obj (.text:sqrt)
                  00004098    0000013c                           : _printfi.c.obj (.text:_pconv_e)
                  000041d4    00000136                           : fd_div_t2.asm.obj (.text)
                  0000430a    00000002                           : div0.asm.obj (.text)
                  0000430c    00000130     driverlib.lib : setup_rom.obj (.text:NOROM_SetupAfterColdResetWakeupFromShutDownCfg3)
                  0000443c    00000120     rtsv7M3_T_le_eabi.lib : _printfi.c.obj (.text:fcvt)
                  0000455c    00000120     mpu9250.obj (.text:mpu9250_get_data)
                  0000467c    0000011c     drivers_cc26xxware.aem3 : PowerCC26XX.oem3 (.text:Power_init)
                  00004798    0000011c                             : UARTCC26XX.oem3 (.text:UARTCC26XX_read)
                  000048b4    00000114     rtsv7M3_T_le_eabi.lib : fputs.c.obj (.text:fputs)
                  000049c8    00000110     drivers_cc26xxware.aem3 : UARTCC26XX.oem3 (.text:UARTCC26XX_hwiIntFxn)
                  00004ad8    000000fc                             : UARTCC26XX.oem3 (.text:UARTCC26XX_write)
                  00004bd4    000000fc     rtsv7M3_T_le_eabi.lib : fd_mul_t2.asm.obj (.text)
                  00004cd0    000000fa                           : fs_add_t2.asm.obj (.text)
                  00004dca    00000002     rom_sysbios.aem3 : rom_sysbios.obj (.text:ti_sysbios_BIOS_linkedWithIncorrectBootLibrary__E)
                  00004dcc    000000f8     drivers_cc26xxware.aem3 : I2CCC26XX.oem3 (.text:I2CCC26XX_open)
                  00004ec4    000000f8     empty_pem3.oem3 (.text:xdc_runtime_System_printfExtend__I)
                  00004fbc    000000f0     project_main.obj (.text:uartTaskFxn)
                  000050ac    000000e8     drivers_cc26xxware.aem3 : I2CCC26XX.oem3 (.text:I2CCC26XX_hwiFxn)
                  00005194    000000e8     mpu9250.obj (.text:initMPU9250)
                  0000527c    000000e4     driverlib.lib : setup_rom.obj (.text:NOROM_SetupAfterColdResetWakeupFromShutDownCfg2)
                  00005360    000000e0     drivers_cc26xxware.aem3 : PINCC26XX.oem3 (.text:PINCC26XX_setIoCfg)
                  00005440    000000dc     rtsv7M3_T_le_eabi.lib : setvbuf.c.obj (.text:setvbuf)
                  0000551c    000000d4     power_cc26xx_tirtos.aem3 : PowerCC26XX_tirtos.oem3 (.text:PowerCC26XX_standbyPolicy)
                  000055f0    000000d4     drivers_cc26xxware.aem3 : PowerCC26XX.oem3 (.text:Power_releaseDependency)
                  000056c4    000000d0                             : PowerCC26XX.oem3 (.text:Power_setDependency)
                  00005794    000000d0     rtsv7M3_T_le_eabi.lib : s_scalbn.c.obj (.text:scalbn)
                  00005864    000000c8     drivers_cc26xxware.aem3 : UARTCC26XX.oem3 (.text:UARTCC26XX_initHw)
                  0000592c    000000c2                             : I2CCC26XX.oem3 (.text:I2CCC26XX_transfer)
                  000059ee    00000002     empty_pem3.oem3 (.text:ti_sysbios_BIOS_nullFunc__I)
                  000059f0    000000bc     driverlib.lib : setup.obj (.text:TrimAfterColdResetWakeupFromShutDown)
                  00005aac    000000bc     project_main.obj (.text:playMorseCode)
                  00005b68    000000b1     rtsv7M3_T_le_eabi.lib : _printfi.c.obj (.text:_ltostr)
                  00005c19    00000001     --HOLE-- [fill = 0]
                  00005c1a    00000002     rom_sysbios.aem3 : rom_sysbios.obj (.text:ti_sysbios_knl_Clock_triggerFunc__I)
                  00005c1c    000000a8     driverlib.lib : setup.obj (.text:NOROM_SetupTrimDevice)
                  00005cc4    000000a0     auto_init.aem3 : auto_init.oem3 (.text)
                  00005d64    0000009e     rom_sysbios.aem3 : rom_sysbios.obj (.text:xdc_runtime_Text_putSite__E)
                  00005e02    0000009c     rtsv7M3_T_le_eabi.lib : memcpy_t2.asm.obj (.text)
                  00005e9e    00000002     rom_sysbios.aem3 : rom_sysbios.obj (.text:xdc_runtime_SysCallback_defaultAbort)
                  00005ea0    00000098                      : rom_sysbios.obj (.text:ti_sysbios_knl_Clock_workFuncDynamic__E)
                  00005f38    00000096     rtsv7M3_T_le_eabi.lib : ull_div_t2.asm.obj (.text)
                  00005fce    00000002     rom_sysbios.aem3 : rom_sysbios.obj (.text:xdc_runtime_SysCallback_defaultExit)
                  00005fd0    00000094     drivers_cc26xxware.aem3 : PINCC26XX.oem3 (.text:PIN_open)
                  00006064    00000094                             : UARTCC26XX.oem3 (.text:writeFinishedDoCallback)
                  000060f8    00000094     rom_sysbios.aem3 : rom_sysbios.obj (.text:xdc_runtime_Text_putMod__E)
                  0000618c    00000092     rtsv7M3_T_le_eabi.lib : fs_div_t2.asm.obj (.text)
                  0000621e    00000002     --HOLE-- [fill = 0]
                  00006220    00000090     drivers_cc26xxware.aem3 : I2CCC26XX.oem3 (.text:I2CCC26XX_cancel)
                  000062b0    00000090     mpu9250.obj (.text:mpu9250_setup)
                  00006340    00000090     drivers_cc26xxware.aem3 : PowerCC26XX.oem3 (.text:switchXOSCHFclockFunc)
                  000063d0    0000008c                             : I2CCC26XX.oem3 (.text:I2CCC26XX_primeTransfer)
                  0000645c    0000008c                             : UARTCC26XX.oem3 (.text:UARTCC26XX_initIO)
                  000064e8    0000008c                             : UARTCC26XX.oem3 (.text:UARTCC26XX_writeCancel)
                  00006574    0000008c     project_main.obj (.text:countAverage)
                  00006600    0000008c     rtsv7M3_T_le_eabi.lib : fputc.c.obj (.text:fputc)
                  0000668c    00000086                           : fd_cmp_t2.asm.obj (.text:__aeabi_cdcmple)
                  00006712    00000086                           : fd_cmp_t2.asm.obj (.text:__aeabi_cdrcmple)
                  00006798    00000080     mpu9250.obj (.text:writeByte)
                  00006818    0000007c     drivers_cc26xxware.aem3 : PowerCC26XX.oem3 (.text:disableLFClockQualifiers)
                  00006894    0000007c     mpu9250.obj (.text:readByte)
                  00006910    0000007a     rtsv7M3_T_le_eabi.lib : fs_mul_t2.asm.obj (.text)
                  0000698a    0000007a                           : memset_t2.asm.obj (.text)
                  00006a04    00000078     driverlib.lib : setup_rom.obj (.text:NOROM_SetupAfterColdResetWakeupFromShutDownCfg1)
                  00006a7c    00000078     drivers_cc26xxware.aem3 : UARTCC26XX.oem3 (.text:UARTCC26XX_close)
                  00006af4    00000074                             : PowerCC26XX_calibrateRCOSC.oem3 (.text:PowerCC26XX_auxISR)
                  00006b68    00000074     rtsv7M3_T_le_eabi.lib : fclose.c.obj (.text:__TI_closefile)
                  00006bdc    00000074     drivers_cc26xxware.aem3 : PowerCC26XX_calibrateRCOSC.oem3 (.text:calibrateRcoscHf2)
                  00006c50    00000074     rom_sysbios.aem3 : rom_sysbios.obj (.text:ti_sysbios_family_arm_cc26xx_Timer_start__E)
                  00006cc4    00000074     drivers_cc26xxware.aem3 : UARTCC26XX.oem3 (.text:writeTxFifoFlush)
                  00006d38    00000070     driverlib.lib : chipinfo.obj (.text:NOROM_ChipInfo_GetHwRevision)
                  00006da8    0000006e     rtsv7M3_T_le_eabi.lib : _printfi.c.obj (.text:_mcpy)
                  00006e16    0000006e                           : fd_tos_t2.asm.obj (.text)
                  00006e84    0000006d     rom_sysbios.aem3 : rom_sysbios.obj (.text:xdc_runtime_System_formatNum__I)
                  00006ef1    00000003     --HOLE-- [fill = 0]
                  00006ef4    0000006c     rtsv7M3_T_le_eabi.lib : hostrename.c.obj (.text:HOSTrename)
                  00006f60    0000006c     driverlib.lib : setup_rom.obj (.text:NOROM_SetupGetTrimForAmpcompCtrl)
                  00006fcc    0000006c     drivers_cc26xxware.aem3 : PowerCC26XX.oem3 (.text:PowerCC26XX_calibrate)
                  00007038    0000006c                             : UARTCC26XX.oem3 (.text:UARTCC26XX_readCancel)
                  000070a4    0000006c     project_main.obj (.text:playSound)
                  00007110    00000068     rtsv7M3_T_le_eabi.lib : hostlseek.c.obj (.text:HOSTlseek)
                  00007178    00000068     driverlib.lib : setup_rom.obj (.text:NOROM_SetupGetTrimForAnabypassValue1)
                  000071e0    00000068                   : sys_ctrl.obj (.text:NOROM_SysCtrl_DCDC_VoltageConditionalControl)
                  00007248    00000068     rtsv7M3_T_le_eabi.lib : copy_decompress_lzss.c.obj (.text:decompress:lzss:__TI_decompress_lzss)
                  000072b0    00000068                           : printf.c.obj (.text:printf)
                  00007318    00000064     drivers_cc26xxware.aem3 : I2CCC26XX.oem3 (.text:I2CCC26XX_close)
                  0000737c    00000064                             : I2CCC26XX.oem3 (.text:I2CCC26XX_initIO)
                  000073e0    00000064                             : UARTCC26XX.oem3 (.text:UARTCC26XX_control)
                  00007444    00000064     rtsv7M3_T_le_eabi.lib : fseek.c.obj (.text:fseek)
                  000074a8    00000062                           : _io_perm.c.obj (.text:__TI_wrt_ok)
                  0000750a    00000002     --HOLE-- [fill = 0]
                  0000750c    00000060                           : hostopen.c.obj (.text:HOSTopen)
                  0000756c    00000060     drivers_cc26xxware.aem3 : PowerCC26XX_calibrateRCOSC.oem3 (.text:PowerCC26XX_RCOSC_clockFunc)
                  000075cc    00000060     rtsv7M3_T_le_eabi.lib : fs_cmp_t2.asm.obj (.text:__aeabi_cfcmple)
                  0000762c    00000060                           : fs_cmp_t2.asm.obj (.text:__aeabi_cfrcmple)
                  0000768c    00000060     drivers_cc26xxware.aem3 : PowerCC26XX_calibrateRCOSC.oem3 (.text:updateSubSecInc)
                  000076ec    0000005c     driverlib.lib : osc.obj (.text:NOROM_OSCHF_AttemptToSwitchToXosc)
                  00007748    0000005c                   : sys_ctrl.obj (.text:NOROM_SysCtrlAdjustRechargeAfterPowerDown)
                  000077a4    0000005c     drivers_cc26xxware.aem3 : PINCC26XX.oem3 (.text:PIN_remove)
                  00007800    0000005c     rtsv7M3_T_le_eabi.lib : close.c.obj (.text:close)
                  0000785c    0000005c                           : s_frexp.c.obj (.text:frexp)
                  000078b8    0000005c     empty_pem3.oem3 (.text:xdc_runtime_Startup_getState__I)
                  00007914    0000005b     rom_sysbios.aem3 : rom_sysbios.obj (.text:xdc_runtime_Text_putLab__E)
                  0000796f    00000001     --HOLE-- [fill = 0]
                  00007970    00000058     rtsv7M3_T_le_eabi.lib : hostread.c.obj (.text:HOSTread)
                  000079c8    00000058                           : hostwrite.c.obj (.text:HOSTwrite)
                  00007a20    00000058     drivers_cc26xxware.aem3 : I2CCC26XX.oem3 (.text:I2CCC26XX_swiFxn)
                  00007a78    00000058                             : PowerCC26XX_calibrateRCOSC.oem3 (.text:PowerCC26XX_initiateCalibration)
                  00007ad0    00000056     rtsv7M3_T_le_eabi.lib : _printfi.c.obj (.text:_pconv_f)
                  00007b26    00000054                           : _ltoa.c.obj (.text:__TI_ltoa)
                  00007b7a    00000002     --HOLE-- [fill = 0]
                  00007b7c    00000054     drivers_cc26xxware.aem3 : PowerCC26XX.oem3 (.text:configureXOSCHF)
                  00007bd0    00000054     mpu9250.obj (.text:getAres)
                  00007c24    00000054     mpu9250.obj (.text:getGres)
                  00007c78    00000052     rtsv7M3_T_le_eabi.lib : _printfi.c.obj (.text:_ecpy)
                  00007cca    00000002     --HOLE-- [fill = 0]
                  00007ccc    00000050     driverlib.lib : setup_rom.obj (.text:NOROM_SetupSetCacheModeAccordingToCcfgSetting)
                  00007d1c    0000004c                   : osc.obj (.text:NOROM_OSCClockSourceSet)
                  00007d68    0000004c     rtsv7M3_T_le_eabi.lib : fflush.c.obj (.text:__TI_doflush)
                  00007db4    0000004c                           : atoi.c.obj (.text:atoi)
                  00007e00    0000004c                           : cpy_tbl.c.obj (.text:copy_in)
                  00007e4c    0000004c     drivers_cc26xxware.aem3 : UARTCC26XX.oem3 (.text:startTxFifoEmptyClk)
                  00007e98    00000048                             : I2CCC26XX.oem3 (.text:I2CCC26XX_initHw)
                  00007ee0    00000048     driverlib.lib : chipinfo.obj (.text:NOROM_ChipInfo_GetChipFamily)
                  00007f28    00000048                   : ddi.obj (.text:NOROM_DDI16BitfieldWrite)
                  00007f70    00000048     drivers_cc26xxware.aem3 : PINCC26XX.oem3 (.text:PIN_setOutputEnable)
                  00007fb8    00000048                             : PINCC26XX.oem3 (.text:PIN_swi)
                  00008000    00000048                             : PowerCC26XX.oem3 (.text:notify)
                  00008048    00000048     rtsv7M3_T_le_eabi.lib : fd_toi_t2.asm.obj (.text)
                  00008090    00000046     drivers_cc26xxware.aem3 : RingBuf.oem3 (.text:RingBuf_put)
                  000080d6    00000002     --HOLE-- [fill = 0]
                  000080d8    00000044     rtsv7M3_T_le_eabi.lib : hostclose.c.obj (.text:HOSTclose)
                  0000811c    00000044                           : hostunlink.c.obj (.text:HOSTunlink)
                  00008160    00000044     boot.aem3 : boot.oem3 (.text)
                  000081a4    00000044     rtsv7M3_T_le_eabi.lib : getdevice.c.obj (.text:getdevice)
                  000081e8    00000044     rom_sysbios.aem3 : rom_sysbios.obj (.text:xdc_runtime_SysMin_flush__E)
                  0000822c    00000044                      : rom_sysbios.obj (.text:xdc_runtime_Text_xprintf__I)
                  00008270    00000040     driverlib.lib : ddi.obj (.text:NOROM_DDI16BitfieldRead)
                  000082b0    00000040     drivers_cc26xxware.aem3 : RingBuf.oem3 (.text:RingBuf_get)
                  000082f0    00000040     rtsv7M3_T_le_eabi.lib : u_divt2.asm.obj (.text)
                  00008330    00000040                           : sprintf.c.obj (.text:sprintf)
                  00008370    0000003e                           : _printfi.c.obj (.text:_fcpy)
                  000083ae    00000002     --HOLE-- [fill = 0]
                  000083b0    0000003c     driverlib.lib : osc.obj (.text:NOROM_OSC_HPOSCRelativeFrequencyOffsetGet)
                  000083ec    0000003c     drivers_cc26xxware.aem3 : PINCC26XX.oem3 (.text:PIN_setOutputValue)
                  00008428    0000003c                             : UARTCC26XX.oem3 (.text:UARTCC26XX_swiIntFxn)
                  00008464    0000003c     project_main.obj (.text:buttonFxn)
                  000084a0    00000038     drivers_cc26xxware.aem3 : I2C.oem3 (.text:I2C_init)
                  000084d8    00000038     rtsv7M3_T_le_eabi.lib : trgmsg.c.obj (.text:__TI_writemsg)
                  00008510    00000038     drivers_cc26xxware.aem3 : UARTCC26XX.oem3 (.text:readData)
                  00008548    00000038     rtsv7M3_T_le_eabi.lib : fs_tod_t2.asm.obj (.text)
                  00008580    00000038                           : i_tofs_t2.asm.obj (.text)
                  000085b8    00000038     rom_sysbios.aem3 : rom_sysbios.obj (.text:ti_sysbios_family_arm_cc26xx_Timer_getCurrentTick__E)
                  000085f0    00000038     drivers_cc26xxware.aem3 : UARTCC26XX.oem3 (.text:writeData)
                  00008628    00000038     rom_sysbios.aem3 : rom_sysbios.obj (.text:xdc_runtime_SysMin_putch__E)
                  00008660    00000036     rtsv7M3_T_le_eabi.lib : strncpy.c.obj (.text:strncpy)
                  00008696    00000002     --HOLE-- [fill = 0]
                  00008698    00000034     driverlib.lib : osc.obj (.text:NOROM_OSCHF_SwitchToRcOscTurnOffXosc)
                  000086cc    00000034     drivers_cc26xxware.aem3 : PINCC26XX.oem3 (.text:PIN_setConfig)
                  00008700    00000034     rtsv7M3_T_le_eabi.lib : fopen.c.obj (.text:__TI_cleanup)
                  00008734    00000034                           : trgmsg.c.obj (.text:__TI_readmsg)
                  00008768    00000034     drivers_cc26xxware.aem3 : UARTCC26XX.oem3 (.text:readData2RingBuf)
                  0000879c    00000034     rom_sysbios.aem3 : rom_sysbios.obj (.text:ti_sysbios_family_arm_cc26xx_Timer_initDevice__I)
                  000087d0    00000032                      : rom_sysbios.obj (.text:ti_sysbios_family_arm_cc26xx_Timer_setNextTick__E)
                  00008802    00000002     --HOLE-- [fill = 0]
                  00008804    00000030     drivers_cc26xxware.aem3 : I2C.oem3 (.text:I2C_open)
                  00008834    00000030     driverlib.lib : setup_rom.obj (.text:NOROM_SetupSetAonRtcSubSecInc)
                  00008864    00000030     drivers_cc26xxware.aem3 : PowerCC26XX.oem3 (.text:Power_releaseConstraint)
                  00008894    00000030                             : PowerCC26XX.oem3 (.text:Power_setConstraint)
                  000088c4    00000030                             : UART.oem3 (.text:UART_open)
                  000088f4    00000030     rtsv7M3_T_le_eabi.lib : getdevice.c.obj (.text:finddevice)
                  00008924    00000030     empty_pem3.oem3 (.text:ti_sysbios_BIOS_atExitFunc__I)
                  00008954    00000030     empty_pem3.oem3 (.text:ti_sysbios_BIOS_startFunc__I)
                  00008984    00000030     rom_sysbios.aem3 : rom_sysbios.obj (.text:ti_sysbios_family_arm_cc26xx_Timer_setThreshold__I)
                  000089b4    00000030                      : rom_sysbios.obj (.text:xdc_runtime_SysMin_abort__E)
                  000089e4    0000002f                      : rom_sysbios.obj (.text:xdc_runtime_Text_printVisFxn__I)
                  00008a13    00000001     --HOLE-- [fill = 0]
                  00008a14    0000002e     empty_pem3.oem3 (.text:malloc)
                  00008a42    0000002e     rtsv7M3_T_le_eabi.lib : i_tofd_t2.asm.obj (.text)
                  00008a70    0000002c     driverlib.lib : ddi.obj (.text:NOROM_DDI32RegWrite)
                  00008a9c    0000002c                   : setup_rom.obj (.text:NOROM_SetupGetTrimForRadcExtCfg)
                  00008ac8    0000002c     drivers_cc26xxware.aem3 : PINCC26XX.oem3 (.text:PINCC26XX_setMux)
                  00008af4    0000002c     rom_sysbios.aem3 : rom_sysbios.obj (.text:ti_sysbios_knl_Clock_getTicksUntilInterrupt__E)
                  00008b20    0000002c     rtsv7M3_T_le_eabi.lib : unlink.c.obj (.text:unlink)
                  00008b4c    0000002a     rom_sysbios.aem3 : rom_sysbios.obj (.text:xdc_runtime_System_putchar__I)
                  00008b76    00000002     --HOLE-- [fill = 0]
                  00008b78    00000028     driverlib.lib : aon_batmon.obj (.text:NOROM_AONBatMonTemperatureGetDegC)
                  00008ba0    00000028     drivers_cc26xxware.aem3 : PowerCC26XX.oem3 (.text:Power_registerNotify)
                  00008bc8    00000028     driverlib.lib : adi.obj (.text:SafeHapiVoid)
                  00008bf0    00000028     rtsv7M3_T_le_eabi.lib : lseek.c.obj (.text:lseek)
                  00008c18    00000028                           : write.c.obj (.text:write)
                  00008c40    00000026     drivers_cc26xxware.aem3 : List.oem3 (.text:List_put)
                  00008c66    00000002     --HOLE-- [fill = 0]
                  00008c68    00000024                             : PINCC26XX.oem3 (.text:PINCC26XX_getPinCount)
                  00008c8c    00000024     mpu9250.obj (.text:delay)
                  00008cb0    00000024     drivers_cc26xxware.aem3 : PowerCC26XX_calibrateRCOSC.oem3 (.text:getTdcSemaphore)
                  00008cd4    00000024     rtsv7M3_T_le_eabi.lib : u_tofs_t2.asm.obj (.text)
                  00008cf8    00000024     empty_pem3.oem3 (.text:ti_sysbios_BIOS_registerRTSLock__I)
                  00008d1c    00000024     empty_pem3.oem3 (.text:ti_sysbios_BIOS_removeRTSLock__I)
                  00008d40    00000024     rom_sysbios.aem3 : rom_sysbios.obj (.text:ti_sysbios_family_arm_cc26xx_Timer_getMaxTicks__E)
                  00008d64    00000024                      : rom_sysbios.obj (.text:xdc_runtime_System_vprintf__E)
                  00008d88    00000022     rtsv7M3_T_le_eabi.lib : memccpy.c.obj (.text:memccpy)
                  00008daa    00000022     empty_pem3.oem3 (.text:xdc_runtime_SysMin_output__I)
                  00008dcc    00000020     driverlib.lib : setup_rom.obj (.text:NOROM_SetupGetTrimForXoscHfCtl)
                  00008dec    00000020     drivers_cc26xxware.aem3 : PowerCC26XX.oem3 (.text:Power_unregisterNotify)
                  00008e0c    00000020     rtsv7M3_T_le_eabi.lib : memchr.c.obj (.text:memchr)
                  00008e2c    00000020     empty_pem3.oem3 (.text:ti_sysbios_BIOS_rtsLock__I)
                  00008e4c    00000020     rom_sysbios.aem3 : rom_sysbios.obj (.text:ti_sysbios_family_arm_cc26xx_Timer_dynamicStub__E)
                  00008e6c    00000020                      : rom_sysbios.obj (.text:ti_sysbios_knl_Clock_stop__E)
                  00008e8c    00000020                      : rom_sysbios.obj (.text:xdc_runtime_SysMin_Module_startup__E)
                  00008eac    0000001e     drivers_cc26xxware.aem3 : PINCC26XX.oem3 (.text:PIN_close)
                  00008eca    0000001e                             : PowerCC26XX.oem3 (.text:Power_getTransitionLatency)
                  00008ee8    0000001c     driverlib.lib : osc.obj (.text:NOROM_OSCClockSourceGet)
                  00008f04    0000001c                   : setup_rom.obj (.text:NOROM_SetupGetTrimForAmpcompTh2)
                  00008f20    0000001c                   : setup_rom.obj (.text:NOROM_SetupGetTrimForRcOscLfRtuneCtuneTrim)
                  00008f3c    0000001c     drivers_cc26xxware.aem3 : PINCC26XX.oem3 (.text:PINCC26XX_setIoCfgMux)
                  00008f58    0000001c                             : PINCC26XX.oem3 (.text:PIN_hwi)
                  00008f74    0000001c     rom_sysbios.aem3 : rom_sysbios.obj (.text:xdc_runtime_Registry_findById__E)
                  00008f90    0000001c                      : rom_sysbios.obj (.text:xdc_runtime_SysMin_exit__E)
                  00008fac    0000001a     drivers_cc26xxware.aem3 : List.oem3 (.text:List_remove)
                  00008fc6    0000001a     empty_pem3.oem3 (.text:free)
                  00008fe0    0000001a     rom_sysbios.aem3 : rom_sysbios_config.obj (.text:xdc_runtime_System_printf__E)
                  00008ffa    00000002     --HOLE-- [fill = 0]
                  00008ffc    00000018     driverlib.lib : aon_rtc.obj (.text:NOROM_AONRTCCurrentCompareValueGet)
                  00009014    00000018                   : chipinfo.obj (.text:NOROM_ChipInfo_GetPackageType)
                  0000902c    00000018                   : osc.obj (.text:NOROM_OSCHF_TurnOnXosc)
                  00009044    00000018                   : setup_rom.obj (.text:NOROM_SetupGetTrimForAdcShModeEn)
                  0000905c    00000018                   : setup_rom.obj (.text:NOROM_SetupGetTrimForAdcShVbufEn)
                  00009074    00000018                   : setup_rom.obj (.text:NOROM_SetupGetTrimForAmpcompTh1)
                  0000908c    00000018                   : setup_rom.obj (.text:NOROM_SetupGetTrimForDblrLoopFilterResetVoltage)
                  000090a4    00000018                   : setup_rom.obj (.text:NOROM_SetupGetTrimForRcOscLfIBiasTrim)
                  000090bc    00000018                   : setup_rom.obj (.text:NOROM_SetupGetTrimForXoscLfRegulatorAndCmirrwrRatio)
                  000090d4    00000018     drivers_cc26xxware.aem3 : PowerCC26XX.oem3 (.text:Power_idleFunc)
                  000090ec    00000018                             : UARTCC26XX.oem3 (.text:UARTCC26XX_init)
                  00009104    00000018                             : UART.oem3 (.text:UART_Params_init)
                  0000911c    00000018     rtsv7M3_T_le_eabi.lib : args_main.c.obj (.text:_args_main)
                  00009134    00000018                           : sprintf.c.obj (.text:_outs)
                  0000914c    00000018     drivers_cc26xxware.aem3 : PowerCC26XX.oem3 (.text:configureRFCoreClocks)
                  00009164    00000018     rtsv7M3_T_le_eabi.lib : ll_mul_t2.asm.obj (.text)
                  0000917c    00000018                           : strcmp.c.obj (.text:strcmp)
                  00009194    00000018     empty_pem3.oem3 (.text:ti_sysbios_BIOS_rtsUnlock__I)
                  000091ac    00000018     rom_sysbios.aem3 : rom_sysbios.obj (.text:ti_sysbios_knl_Swi_or__E)
                  000091c4    00000016     rtsv7M3_T_le_eabi.lib : strchr.c.obj (.text:strchr)
                  000091da    00000016                           : strcpy.c.obj (.text:strcpy)
                  000091f0    00000016     empty_pem3.oem3 (.text:ti_sysbios_BIOS_exitFunc__I)
                  00009206    00000016     project_main.obj (.text:ti_sysbios_knl_Task_Params_init)
                  0000921c    00000014     driverlib.lib : aon_rtc.obj (.text:NOROM_AONRTCCurrent64BitValueGet)
                  00009230    00000014                   : chipinfo.obj (.text:NOROM_ThisCodeIsBuiltForCC26xxHwRev22AndLater_HaltIfViolated)
                  00009244    00000014     drivers_cc26xxware.aem3 : PINCC26XX.oem3 (.text:PINCC26XX_getOutputValue)
                  00009258    00000014     rtsv7M3_T_le_eabi.lib : strlen.c.obj (.text:strlen)
                  0000926c    00000014     empty_pem3.oem3 (.text:ti_sysbios_knl_Clock_doTick__I)
                  00009280    00000014     project_main.obj (.text:uartFxn)
                  00009294    00000012     drivers_cc26xxware.aem3 : RingBuf.oem3 (.text:RingBuf_construct)
                  000092a6    00000012     rtsv7M3_T_le_eabi.lib : wcslen.c.obj (.text:wcslen)
                  000092b8    00000012     empty_pem3.oem3 (.text:xdc_runtime_Startup_exec__I)
                  000092ca    00000002     --HOLE-- [fill = 0]
                  000092cc    00000010     drivers_cc26xxware.aem3 : I2C.oem3 (.text:I2C_Params_init)
                  000092dc    00000010     driverlib.lib : setup_rom.obj (.text:NOROM_SetupGetTrimForXoscHfFastStart)
                  000092ec    00000010                   : setup_rom.obj (.text:NOROM_SetupGetTrimForXoscHfIbiastherm)
                  000092fc    00000010     drivers_cc26xxware.aem3 : I2CCC26XX.oem3 (.text:i2cPostNotify)
                  0000930c    00000010                             : UARTCC26XX.oem3 (.text:uartPostNotify)
                  0000931c    00000010     rom_sysbios.aem3 : rom_sysbios.obj (.text:xdc_runtime_SysMin_ready__E)
                  0000932c    00000010                      : rom_sysbios.obj (.text:xdc_runtime_System_vsnprintf__E)
                  0000933c    0000000e     driverlib.lib : vims.obj (.text:NOROM_VIMSModeGet)
                  0000934a    0000000e     rtsv7M3_T_le_eabi.lib : copy_decompress_none.c.obj (.text:decompress:none:__TI_decompress_none)
                  00009358    0000000e     rom_sysbios.aem3 : rom_sysbios.obj (.text:ti_sysbios_family_arm_cc26xx_TimestampProvider_get32__E)
                  00009366    0000000c     driverlib.lib : cpu.obj (.text:NOROM_CPUcpsid)
                  00009372    0000000c                   : cpu.obj (.text:NOROM_CPUcpsie)
                  0000937e    0000000c     drivers_cc26xxware.aem3 : PINCC26XX.oem3 (.text:PIN_registerIntCb)
                  0000938a    00000002     --HOLE-- [fill = 0]
                  0000938c    0000000c                             : PowerCC26XX.oem3 (.text:Power_getConstraintMask)
                  00009398    0000000c                             : PowerCC26XX.oem3 (.text:Power_getDependencyCount)
                  000093a4    0000000c     rtsv7M3_T_le_eabi.lib : _lock.c.obj (.text:_register_lock)
                  000093b0    0000000c                           : _lock.c.obj (.text:_register_unlock)
                  000093bc    0000000c                           : s_copysign.c.obj (.text:copysign)
                  000093c8    0000000c                           : copy_zero_init.c.obj (.text:decompress:ZI:__TI_zero_init)
                  000093d4    0000000c     rom_sysbios.aem3 : rom_sysbios.obj (.text:ti_sysbios_knl_Swi_getTrigger__E)
                  000093e0    0000000c                      : rom_sysbios.obj (.text:xdc_runtime_Startup_rtsDone__E)
                  000093ec    0000000a     drivers_cc26xxware.aem3 : I2CCC26XX.oem3 (.text:I2CCC26XX_init)
                  000093f6    0000000a                             : I2C.oem3 (.text:I2C_transfer)
                  00009400    0000000a                             : List.oem3 (.text:List_empty)
                  0000940a    0000000a                             : UART.oem3 (.text:UART_read)
                  00009414    0000000a                             : UART.oem3 (.text:UART_readCancel)
                  0000941e    0000000a                             : UART.oem3 (.text:UART_write)
                  00009428    0000000a     rtsv7M3_T_le_eabi.lib : sprintf.c.obj (.text:_outc)
                  00009432    00000008     drivers_cc26xxware.aem3 : I2CCC26XX.oem3 (.text:I2CCC26XX_blockingCallback)
                  0000943a    00000002     --HOLE-- [fill = 0]
                  0000943c    00000008     rtsv7M3_T_le_eabi.lib : errno.c.obj (.text:__aeabi_errno_addr)
                  00009444    00000008     drivers_cc26xxware.aem3 : UARTCC26XX.oem3 (.text:readSemCallback)
                  0000944c    00000008                             : UARTCC26XX.oem3 (.text:writeSemCallback)
                  00009454    00000008     empty_pem3.oem3 (.text:xdc_runtime_Text_visitRope__I)
                  0000945c    00000006     drivers_cc26xxware.aem3 : I2CCC26XX.oem3 (.text:I2CCC26XX_control)
                  00009462    00000006     driverlib.lib : cpu.obj (.text:NOROM_CPUdelay)
                  00009468    00000006     drivers_cc26xxware.aem3 : UARTCC26XX.oem3 (.text:UARTCC26XX_readPolling)
                  0000946e    00000006                             : UARTCC26XX.oem3 (.text:UARTCC26XX_writePolling)
                  00009474    00000004     tirtosport.aem3 : HwiP_tirtos.oem3 (.text:HwiP_disable)
                  00009478    00000004     drivers_cc26xxware.aem3 : List.oem3 (.text:List_head)
                  0000947c    00000004                             : List.oem3 (.text:List_next)
                  00009480    00000004     rtsv7M3_T_le_eabi.lib : printf.c.obj (.text:_outc)
                  00009484    00000004                           : printf.c.obj (.text:_outs)
                  00009488    00000004     drivers_cc26xxware.aem3 : PowerCC26XX.oem3 (.text:nopResourceHandler)
                  0000948c    00000004     rom_sysbios.aem3 : rom_sysbios.obj (.text:ti_sysbios_family_arm_cc26xx_Timer_getCount64__E)
                  00009490    00000004     empty_pem3.oem3 (.text:xdc_runtime_Startup_reset__I)
                  00009494    00000004     rom_sysbios.aem3 : rom_sysbios.obj (.text:xdc_runtime_System_printf_va__F)
                  00009498    00000008     (.tramp.xdc_runtime_Startup_startMods__I.1)
                  000094a0    00000008     (.tramp.ti_sysbios_knl_Clock_logTick__E.1)
                  000094a8    00000008     (.tramp.ti_sysbios_knl_Task_Params__init__S.1)
                  000094b0    00000008     (.tramp.ti_sysbios_BIOS_RtsGateProxy_leave__E.1)
                  000094b8    00000008     (.tramp.xdc_runtime_Memory_free__E.1)
                  000094c0    00000008     (.tramp.ti_sysbios_BIOS_RtsGateProxy_enter__E.1)
                  000094c8    00000008     (.tramp.xdc_runtime_Memory_alloc__E.1)
                  000094d0    00000008     (.tramp.xdc_runtime_Error_init__E.1)
                  000094d8    00000008     (.tramp.ti_sysbios_knl_Task_startup__E.1)
                  000094e0    00000008     (.tramp.ti_sysbios_knl_Swi_startup__E.1)
                  000094e8    00000008     (.tramp.ti_sysbios_hal_Hwi_startup__E.1)
                  000094f0    00000008     (.tramp.ti_sysbios_family_arm_cc26xx_Timer_startup__E.1)
                  000094f8    00000008     (.tramp.xdc_runtime_System_atexit__E.1)
                  00009500    00000008     (.tramp.ti_sysbios_BIOS_setThreadType__E.1)
                  00009508    00000008     (.tramp.xdc_runtime_Gate_leaveSystem__E.1)
                  00009510    00000008     (.tramp.xdc_runtime_Gate_enterSystem__E.1)
                  00009518    00000008     (.tramp.xdc_runtime_System_exit__E.1)
                  00009520    00000008     (.tramp.ti_sysbios_knl_Clock_destruct.1)
                  00009528    00000008     (.tramp.ti_sysbios_knl_Semaphore_destruct.1)
                  00009530    00000008     (.tramp.ti_sysbios_knl_Swi_destruct.1)
                  00009538    00000008     (.tramp.ti_sysbios_family_arm_m3_Hwi_destruct.1)
                  00009540    00000008     (.tramp.ti_sysbios_knl_Clock_scheduleNextTick__E.1)
                  00009548    00000008     (.tramp.ti_sysbios_knl_Clock_walkQueueDynamic__E.1)
                  00009550    00000008     (.tramp.ti_sysbios_knl_Clock_TimerProxy_getCurrentTick__E.1)
                  00009558    00000008     (.tramp.ti_sysbios_knl_Semaphore_post__E.1)
                  00009560    00000008     (.tramp.ti_sysbios_family_arm_m3_Hwi_enableInterrupt__E.1)
                  00009568    00000008     (.tramp.ti_sysbios_family_arm_m3_Hwi_disableInterrupt__E.1)
                  00009570    00000008     (.tramp.ti_sysbios_BIOS_getCpuFreq__E.1)
                  00009578    00000008     (.tramp.ti_sysbios_knl_Swi_post__E.1)
                  00009580    00000008     (.tramp.ti_sysbios_knl_Semaphore_pend__E.1)
                  00009588    00000008     (.tramp.ti_sysbios_knl_Clock_setTimeout__E.1)
                  00009590    00000008     (.tramp.ti_sysbios_knl_Clock_start__E.1)
                  00009598    00000008     (.tramp.xdc_runtime_System_abortSpin__E.1)
                  000095a0    00000008     (.tramp.ti_sysbios_knl_Clock_construct.1)
                  000095a8    00000008     (.tramp.ti_sysbios_knl_Clock_Params__init__S.1)
                  000095b0    00000008     (.tramp.ti_sysbios_family_arm_m3_Hwi_restoreFxn__E.1)
                  000095b8    00000008     (.tramp.ti_sysbios_family_arm_m3_Hwi_disableFxn__E.1)
                  000095c0    00000008     (.tramp.ti_sysbios_knl_Swi_construct.1)
                  000095c8    00000008     (.tramp.ti_sysbios_knl_Swi_Params__init__S.1)
                  000095d0    00000008     (.tramp.ti_sysbios_family_arm_m3_Hwi_construct.1)
                  000095d8    00000008     (.tramp.ti_sysbios_family_arm_m3_Hwi_Params__init__S.1)
                  000095e0    00000008     (.tramp.ti_sysbios_knl_Semaphore_construct.1)
                  000095e8    00000008     (.tramp.ti_sysbios_knl_Semaphore_Params__init__S.1)
                  000095f0    00000008     (.tramp.ti_sysbios_BIOS_start__E.1)
                  000095f8    00000008     (.tramp.ti_sysbios_knl_Task_create.1)
                  00009600    00000008     (.tramp.ti_sysbios_knl_Task_restore__E.1)
                  00009608    00000008     (.tramp.ti_sysbios_knl_Swi_restore__E.1)
                  00009610    00000008     (.tramp.ti_sysbios_knl_Swi_disable__E.1)
                  00009618    00000008     (.tramp.ti_sysbios_knl_Task_disable__E.1)
                  00009620    00000008     (.tramp.ti_sysbios_knl_Task_sleep__E.1)
                  00009628    00000008     (.tramp.xdc_runtime_System_abort__E.1)
                  00009630    00000008     (.tramp.ti_sysbios_knl_Clock_getTicks__E.1)

.const     0    00009638    000003d6     
                  00009638    00000101     rtsv7M3_T_le_eabi.lib : ctype.c.obj (.const:.string:_ctypes_)
                  00009739    00000002     project_main.obj (.const:i2cMPUCfg)
                  0000973b    00000001     empty_pem3.oem3 (.const:xdc_runtime_Text_charTab__A)
                  0000973c    00000068     CC2650STK.obj (.const:BoardGpioInitTable)
                  000097a4    0000004c     drivers_cc26xxware.aem3 : PowerCC26XX.oem3 (.const:resourceDB)
                  000097f0    00000048     empty_pem3.oem3 (.const:.string)
                  00009838    00000040     drivers_cc26xxware.aem3 : UARTCC26XX.oem3 (.const)
                  00009878    00000030     rtsv7M3_T_le_eabi.lib : e_pow.c.obj (.const:$O1$$)
                  000098a8    00000028     drivers_cc26xxware.aem3 : UARTCC26XX.oem3 (.const:UARTCC26XX_fxnTable)
                  000098d0    00000028     empty_pem3.oem3 (.const:xdc_runtime_Startup_sfxnTab__A)
                  000098f8    00000024     drivers_cc26xxware.aem3 : UART.oem3 (.const:UART_defaultParams)
                  0000991c    00000020                             : I2CCC26XX.oem3 (.const)
                  0000993c    00000020     CC2650STK.obj (.const:uartCC26XXHWAttrs)
                  0000995c    00000018     CC2650STK.obj (.const:I2C_config)
                  00009974    00000018     CC2650STK.obj (.const:UART_config)
                  0000998c    00000018     CC2650STK.obj (.const:i2cCC26xxHWAttrs)
                  000099a4    00000014     empty_pem3.oem3 (.const:xdc_runtime_Startup_sfxnRts__A)
                  000099b8    00000010     CC2650STK.obj (.const:PowerCC26XX_config)
                  000099c8    00000010     drivers_cc26xxware.aem3 : I2C.oem3 (.const)
                  000099d8    0000000c     empty_pem3.oem3 (.const:xdc_runtime_Startup_firstFxns__A)
                  000099e4    00000008     CC2650STK.obj (.const:PINCC26XX_hwAttrs)
                  000099ec    00000004     empty_pem3.oem3 (.const:ti_sysbios_knl_Clock_tickPeriod__C)
                  000099f0    00000004     empty_pem3.oem3 (.const:ti_sysbios_knl_Clock_triggerClock__C)
                  000099f4    00000004     empty_pem3.oem3 (.const:ti_sysbios_knl_Idle_funcList__A)
                  000099f8    00000004     empty_pem3.oem3 (.const:xdc_runtime_SysMin_bufSize__C)
                  000099fc    00000004     empty_pem3.oem3 (.const:xdc_runtime_SysMin_outputFunc__C)
                  00009a00    00000004     empty_pem3.oem3 (.const:xdc_runtime_System_extendFxn__C)
                  00009a04    00000004     empty_pem3.oem3 (.const:xdc_runtime_Text_visitRopeFxn__C)
                  00009a08    00000002     empty_pem3.oem3 (.const:xdc_runtime_SysMin_flushAtExit__C)
                  00009a0a    00000002     empty_pem3.oem3 (.const:xdc_runtime_Text_registryModsLastId__C)
                  00009a0c    00000002     empty_pem3.oem3 (.const:xdc_runtime_Text_unnamedModsLastId__C)

.cinit     0    00009a10    000002c0     
                  00009a10    00000180     (.cinit..data.load) [load image, compression = lzss]
                  00009b90    00000028     (.cinit..data:ti_sysbios_family_arm_m3_Hwi_Module__state__V.load) [load image, compression = lzss]
                  00009bb8    00000021     (.cinit..data:ti_sysbios_knl_Task_Module__state__V.load) [load image, compression = lzss]
                  00009bd9    0000001f     (.cinit..data:ti_sysbios_BIOS_Module__state__V.load) [load image, compression = lzss]
                  00009bf8    0000001d     (.cinit..data:ti_sysbios_knl_Clock_Module__state__V.load) [load image, compression = lzss]
                  00009c15    00000010     (.cinit..data:ti_sysbios_knl_Swi_Module__state__V.load) [load image, compression = lzss]
                  00009c25    00000003     --HOLE-- [fill = 0]
                  00009c28    0000000c     (__TI_handler_table)
                  00009c34    0000000b     (.cinit..data:ti_sysbios_family_arm_cc26xx_Timer_Module__state__V.load) [load image, compression = lzss]
                  00009c3f    0000000b     (.cinit..data:xdc_runtime_System_Module__state__V.load) [load image, compression = lzss]
                  00009c4a    00000006     --HOLE-- [fill = 0]
                  00009c50    00000008     (.cinit..bss.load) [load image, compression = zero_init]
                  00009c58    00000008     (.cinit..data:xdc_runtime_Memory_Module__state__V.load) [load image, compression = lzss]
                  00009c60    00000007     (.cinit..data:ti_sysbios_family_arm_cc26xx_TimestampProvider_Module__state__V.load) [load image, compression = lzss]
                  00009c67    00000007     (.cinit..data:xdc_runtime_Startup_Module__state__V.load) [load image, compression = lzss]
                  00009c6e    00000002     --HOLE-- [fill = 0]
                  00009c70    00000060     (__TI_cinit_table)

.init_array 
*          0    00000000    00000000     UNINITIALIZED

.ccfg      0    0001ffa8    00000058     
                  0001ffa8    00000058     ccfg.obj (.ccfg:retain)

.const:ti_sysbios_knl_Task_Object__PARAMS__C 
*          0    00000100    0000003c     
                  00000100    0000003c     empty_pem3.oem3 (.const:ti_sysbios_knl_Task_Object__PARAMS__C)

.const:ti_sysbios_knl_Mailbox_Object__PARAMS__C 
*          0    0000013c    00000034     
                  0000013c    00000034     empty_pem3.oem3 (.const:ti_sysbios_knl_Mailbox_Object__PARAMS__C)

.const:ti_sysbios_family_arm_m3_Hwi_Object__PARAMS__C 
*          0    00000170    00000030     
                  00000170    00000030     empty_pem3.oem3 (.const:ti_sysbios_family_arm_m3_Hwi_Object__PARAMS__C)

.const:ti_sysbios_hal_Hwi_Object__PARAMS__C 
*          0    000001a0    0000002c     
                  000001a0    0000002c     empty_pem3.oem3 (.const:ti_sysbios_hal_Hwi_Object__PARAMS__C)

.const:ti_sysbios_heaps_HeapMem_Module__FXNS__C 
*          0    000001cc    00000028     
                  000001cc    00000028     empty_pem3.oem3 (.const:ti_sysbios_heaps_HeapMem_Module__FXNS__C)

.const:ti_sysbios_knl_Swi_Object__PARAMS__C 
*          0    000001f4    00000028     
                  000001f4    00000028     empty_pem3.oem3 (.const:ti_sysbios_knl_Swi_Object__PARAMS__C)

.const:ti_sysbios_gates_GateHwi_Module__FXNS__C 
*          0    0000021c    00000024     
                  0000021c    00000024     empty_pem3.oem3 (.const:ti_sysbios_gates_GateHwi_Module__FXNS__C)

.const:ti_sysbios_gates_GateMutex_Module__FXNS__C 
*          0    00000240    00000024     
                  00000240    00000024     empty_pem3.oem3 (.const:ti_sysbios_gates_GateMutex_Module__FXNS__C)

.const:ti_sysbios_heaps_HeapMem_Object__PARAMS__C 
*          0    00000264    00000024     
                  00000264    00000024     empty_pem3.oem3 (.const:ti_sysbios_heaps_HeapMem_Object__PARAMS__C)

.const:ti_sysbios_knl_Clock_Object__PARAMS__C 
*          0    00000288    00000024     
                  00000288    00000024     empty_pem3.oem3 (.const:ti_sysbios_knl_Clock_Object__PARAMS__C)

.const:ti_sysbios_knl_Semaphore_Object__PARAMS__C 
*          0    000002ac    00000024     
                  000002ac    00000024     empty_pem3.oem3 (.const:ti_sysbios_knl_Semaphore_Object__PARAMS__C)

.const:ti_sysbios_family_arm_m3_Hwi_Object__DESC__C 
*          0    000002d0    00000020     
                  000002d0    00000020     empty_pem3.oem3 (.const:ti_sysbios_family_arm_m3_Hwi_Object__DESC__C)

.const:ti_sysbios_gates_GateHwi_Object__DESC__C 
*          0    000002f0    00000020     
                  000002f0    00000020     empty_pem3.oem3 (.const:ti_sysbios_gates_GateHwi_Object__DESC__C)

.const:ti_sysbios_gates_GateMutex_Object__DESC__C 
*          0    00000310    00000020     
                  00000310    00000020     empty_pem3.oem3 (.const:ti_sysbios_gates_GateMutex_Object__DESC__C)

.const:ti_sysbios_hal_Hwi_Object__DESC__C 
*          0    00000330    00000020     
                  00000330    00000020     empty_pem3.oem3 (.const:ti_sysbios_hal_Hwi_Object__DESC__C)

.const:ti_sysbios_heaps_HeapMem_Object__DESC__C 
*          0    00000350    00000020     
                  00000350    00000020     empty_pem3.oem3 (.const:ti_sysbios_heaps_HeapMem_Object__DESC__C)

.const:ti_sysbios_knl_Clock_Object__DESC__C 
*          0    00000370    00000020     
                  00000370    00000020     empty_pem3.oem3 (.const:ti_sysbios_knl_Clock_Object__DESC__C)

.const:ti_sysbios_knl_Mailbox_Object__DESC__C 
*          0    00000390    00000020     
                  00000390    00000020     empty_pem3.oem3 (.const:ti_sysbios_knl_Mailbox_Object__DESC__C)

.const:ti_sysbios_knl_Queue_Object__DESC__C 
*          0    000003b0    00000020     
                  000003b0    00000020     empty_pem3.oem3 (.const:ti_sysbios_knl_Queue_Object__DESC__C)

.const:ti_sysbios_knl_Semaphore_Object__DESC__C 
*          0    000003d0    00000020     
                  000003d0    00000020     empty_pem3.oem3 (.const:ti_sysbios_knl_Semaphore_Object__DESC__C)

.const:ti_sysbios_knl_Swi_Object__DESC__C 
*          0    000003f0    00000020     
                  000003f0    00000020     empty_pem3.oem3 (.const:ti_sysbios_knl_Swi_Object__DESC__C)

.const:ti_sysbios_knl_Task_Object__DESC__C 
*          0    00000410    00000020     
                  00000410    00000020     empty_pem3.oem3 (.const:ti_sysbios_knl_Task_Object__DESC__C)

.const:ti_sysbios_gates_GateHwi_Object__PARAMS__C 
*          0    00000430    00000018     
                  00000430    00000018     empty_pem3.oem3 (.const:ti_sysbios_gates_GateHwi_Object__PARAMS__C)

.const:ti_sysbios_gates_GateMutex_Object__PARAMS__C 
*          0    00000448    00000018     
                  00000448    00000018     empty_pem3.oem3 (.const:ti_sysbios_gates_GateMutex_Object__PARAMS__C)

.const:ti_sysbios_knl_Queue_Object__PARAMS__C 
*          0    00000460    00000018     
                  00000460    00000018     empty_pem3.oem3 (.const:ti_sysbios_knl_Queue_Object__PARAMS__C)

.const:ti_sysbios_knl_Idle_funcList__C 
*          0    00000478    00000008     
                  00000478    00000008     empty_pem3.oem3 (.const:ti_sysbios_knl_Idle_funcList__C)

.const:ti_sysbios_family_arm_cc26xx_Timer_startupNeeded__C 
*          0    00000484    00000004     
                  00000484    00000004     empty_pem3.oem3 (.const:ti_sysbios_family_arm_cc26xx_Timer_startupNeeded__C)

.const:ti_sysbios_family_arm_m3_Hwi_E_alreadyDefined__C 
*          0    00000488    00000004     
                  00000488    00000004     empty_pem3.oem3 (.const:ti_sysbios_family_arm_m3_Hwi_E_alreadyDefined__C)

.const:ti_sysbios_family_arm_m3_Hwi_E_hwiLimitExceeded__C 
*          0    0000048c    00000004     
                  0000048c    00000004     empty_pem3.oem3 (.const:ti_sysbios_family_arm_m3_Hwi_E_hwiLimitExceeded__C)

.const:ti_sysbios_family_arm_m3_Hwi_NUM_INTERRUPTS__C 
*          0    00000490    00000004     
                  00000490    00000004     empty_pem3.oem3 (.const:ti_sysbios_family_arm_m3_Hwi_NUM_INTERRUPTS__C)

.const:ti_sysbios_family_arm_m3_Hwi_Object__count__C 
*          0    00000494    00000004     
                  00000494    00000004     empty_pem3.oem3 (.const:ti_sysbios_family_arm_m3_Hwi_Object__count__C)

.const:ti_sysbios_family_arm_m3_Hwi_Object__table__C 
*          0    00000498    00000004     
                  00000498    00000004     empty_pem3.oem3 (.const:ti_sysbios_family_arm_m3_Hwi_Object__table__C)

.const:ti_sysbios_family_arm_m3_Hwi_ccr__C 
*          0    0000049c    00000004     
                  0000049c    00000004     empty_pem3.oem3 (.const:ti_sysbios_family_arm_m3_Hwi_ccr__C)

.const:ti_sysbios_family_arm_m3_Hwi_excHandlerFunc__C 
*          0    000004a0    00000004     
                  000004a0    00000004     empty_pem3.oem3 (.const:ti_sysbios_family_arm_m3_Hwi_excHandlerFunc__C)

.const:ti_sysbios_family_arm_m3_Hwi_nullIsrFunc__C 
*          0    000004a4    00000004     
                  000004a4    00000004     empty_pem3.oem3 (.const:ti_sysbios_family_arm_m3_Hwi_nullIsrFunc__C)

.const:ti_sysbios_family_arm_m3_Hwi_numSparseInterrupts__C 
*          0    000004a8    00000004     
                  000004a8    00000004     empty_pem3.oem3 (.const:ti_sysbios_family_arm_m3_Hwi_numSparseInterrupts__C)

.const:ti_sysbios_family_arm_m3_Hwi_priGroup__C 
*          0    000004ac    00000004     
                  000004ac    00000004     empty_pem3.oem3 (.const:ti_sysbios_family_arm_m3_Hwi_priGroup__C)

.const:ti_sysbios_family_arm_m3_TaskSupport_stackAlignment__C 
*          0    000004b0    00000004     
                  000004b0    00000004     empty_pem3.oem3 (.const:ti_sysbios_family_arm_m3_TaskSupport_stackAlignment__C)

.const:ti_sysbios_heaps_HeapMem_E_memory__C 
*          0    000004b4    00000004     
                  000004b4    00000004     empty_pem3.oem3 (.const:ti_sysbios_heaps_HeapMem_E_memory__C)

.const:ti_sysbios_heaps_HeapMem_Module__gateObj__C 
*          0    000004b8    00000004     
                  000004b8    00000004     empty_pem3.oem3 (.const:ti_sysbios_heaps_HeapMem_Module__gateObj__C)

.const:ti_sysbios_heaps_HeapMem_Object__count__C 
*          0    000004bc    00000004     
                  000004bc    00000004     empty_pem3.oem3 (.const:ti_sysbios_heaps_HeapMem_Object__count__C)

.const:ti_sysbios_heaps_HeapMem_Object__table__C 
*          0    000004c0    00000004     
                  000004c0    00000004     empty_pem3.oem3 (.const:ti_sysbios_heaps_HeapMem_Object__table__C)

.const:ti_sysbios_heaps_HeapMem_reqAlign__C 
*          0    000004c4    00000004     
                  000004c4    00000004     empty_pem3.oem3 (.const:ti_sysbios_heaps_HeapMem_reqAlign__C)

.const:ti_sysbios_knl_Clock_serviceMargin__C 
*          0    000004c8    00000004     
                  000004c8    00000004     empty_pem3.oem3 (.const:ti_sysbios_knl_Clock_serviceMargin__C)

.const:ti_sysbios_knl_Mailbox_Object__count__C 
*          0    000004cc    00000004     
                  000004cc    00000004     empty_pem3.oem3 (.const:ti_sysbios_knl_Mailbox_Object__count__C)

.const:ti_sysbios_knl_Mailbox_Object__table__C 
*          0    000004d0    00000004     
                  000004d0    00000004     empty_pem3.oem3 (.const:ti_sysbios_knl_Mailbox_Object__table__C)

.const:ti_sysbios_knl_Queue_Object__count__C 
*          0    000004d4    00000004     
                  000004d4    00000004     empty_pem3.oem3 (.const:ti_sysbios_knl_Queue_Object__count__C)

.const:ti_sysbios_knl_Queue_Object__table__C 
*          0    000004d8    00000004     
                  000004d8    00000004     empty_pem3.oem3 (.const:ti_sysbios_knl_Queue_Object__table__C)

.const:ti_sysbios_knl_Swi_Object__count__C 
*          0    000004dc    00000004     
                  000004dc    00000004     empty_pem3.oem3 (.const:ti_sysbios_knl_Swi_Object__count__C)

.const:ti_sysbios_knl_Swi_Object__table__C 
*          0    000004e0    00000004     
                  000004e0    00000004     empty_pem3.oem3 (.const:ti_sysbios_knl_Swi_Object__table__C)

.const:ti_sysbios_knl_Swi_numPriorities__C 
*          0    000004e4    00000004     
                  000004e4    00000004     empty_pem3.oem3 (.const:ti_sysbios_knl_Swi_numPriorities__C)

.const:ti_sysbios_knl_Task_Object__count__C 
*          0    000004e8    00000004     
                  000004e8    00000004     empty_pem3.oem3 (.const:ti_sysbios_knl_Task_Object__count__C)

.const:ti_sysbios_knl_Task_Object__table__C 
*          0    000004ec    00000004     
                  000004ec    00000004     empty_pem3.oem3 (.const:ti_sysbios_knl_Task_Object__table__C)

.const:ti_sysbios_knl_Task_allBlockedFunc__C 
*          0    000004f0    00000004     
                  000004f0    00000004     empty_pem3.oem3 (.const:ti_sysbios_knl_Task_allBlockedFunc__C)

.const:ti_sysbios_knl_Task_defaultStackHeap__C 
*          0    000004f4    00000004     
                  000004f4    00000004     empty_pem3.oem3 (.const:ti_sysbios_knl_Task_defaultStackHeap__C)

.const:ti_sysbios_knl_Task_defaultStackSize__C 
*          0    000004f8    00000004     
                  000004f8    00000004     empty_pem3.oem3 (.const:ti_sysbios_knl_Task_defaultStackSize__C)

.const:ti_sysbios_knl_Task_numConstructedTasks__C 
*          0    000004fc    00000004     
                  000004fc    00000004     empty_pem3.oem3 (.const:ti_sysbios_knl_Task_numConstructedTasks__C)

.const:ti_sysbios_family_arm_cc26xx_Timer_Module__id__C 
*          0    00000502    00000002     
                  00000502    00000002     empty_pem3.oem3 (.const:ti_sysbios_family_arm_cc26xx_Timer_Module__id__C)

.const:ti_sysbios_family_arm_cc26xx_TimestampProvider_useClockTimer__C 
*          0    00000504    00000002     
                  00000504    00000002     empty_pem3.oem3 (.const:ti_sysbios_family_arm_cc26xx_TimestampProvider_useClockTimer__C)

.const:ti_sysbios_family_arm_m3_Hwi_Module__id__C 
*          0    00000506    00000002     
                  00000506    00000002     empty_pem3.oem3 (.const:ti_sysbios_family_arm_m3_Hwi_Module__id__C)

.const:ti_sysbios_gates_GateHwi_Module__id__C 
*          0    00000508    00000002     
                  00000508    00000002     empty_pem3.oem3 (.const:ti_sysbios_gates_GateHwi_Module__id__C)

.const:ti_sysbios_gates_GateMutex_Module__id__C 
*          0    0000050a    00000002     
                  0000050a    00000002     empty_pem3.oem3 (.const:ti_sysbios_gates_GateMutex_Module__id__C)

.const:ti_sysbios_heaps_HeapMem_Module__id__C 
*          0    0000050c    00000002     
                  0000050c    00000002     empty_pem3.oem3 (.const:ti_sysbios_heaps_HeapMem_Module__id__C)

.const:ti_sysbios_knl_Task_initStackFlag__C 
*          0    0000050e    00000002     
                  0000050e    00000002     empty_pem3.oem3 (.const:ti_sysbios_knl_Task_initStackFlag__C)

.const:ti_sysbios_knl_Clock_tickMode__C 
*          0    00000510    00000001     
                  00000510    00000001     empty_pem3.oem3 (.const:ti_sysbios_knl_Clock_tickMode__C)

.const:xdc_runtime_Startup_firstFxns__C 
*          0    00000514    00000008     
                  00000514    00000008     empty_pem3.oem3 (.const:xdc_runtime_Startup_firstFxns__C)

.const:xdc_runtime_Startup_lastFxns__C 
*          0    0000051c    00000008     
                  0000051c    00000008     empty_pem3.oem3 (.const:xdc_runtime_Startup_lastFxns__C)

.const:xdc_runtime_Assert_E_assertFailed__C 
*          0    00000524    00000004     
                  00000524    00000004     empty_pem3.oem3 (.const:xdc_runtime_Assert_E_assertFailed__C)

.const:xdc_runtime_Error_E_memory__C 
*          0    00000528    00000004     
                  00000528    00000004     empty_pem3.oem3 (.const:xdc_runtime_Error_E_memory__C)

.const:xdc_runtime_Error_policyFxn__C 
*          0    0000052c    00000004     
                  0000052c    00000004     empty_pem3.oem3 (.const:xdc_runtime_Error_policyFxn__C)

.const:xdc_runtime_IGateProvider_Interface__BASE__C 
*          0    00000530    00000004     
                  00000530    00000004     empty_pem3.oem3 (.const:xdc_runtime_IGateProvider_Interface__BASE__C)

.const:xdc_runtime_IHeap_Interface__BASE__C 
*          0    00000534    00000004     
                  00000534    00000004     empty_pem3.oem3 (.const:xdc_runtime_IHeap_Interface__BASE__C)

.const:xdc_runtime_IModule_Interface__BASE__C 
*          0    00000538    00000004     
                  00000538    00000004     empty_pem3.oem3 (.const:xdc_runtime_IModule_Interface__BASE__C)

.const:xdc_runtime_Main_Module__diagsEnabled__C 
*          0    0000053c    00000004     
                  0000053c    00000004     empty_pem3.oem3 (.const:xdc_runtime_Main_Module__diagsEnabled__C)

.const:xdc_runtime_Main_Module__diagsIncluded__C 
*          0    00000540    00000004     
                  00000540    00000004     empty_pem3.oem3 (.const:xdc_runtime_Main_Module__diagsIncluded__C)

.const:xdc_runtime_Main_Module__diagsMask__C 
*          0    00000544    00000004     
                  00000544    00000004     empty_pem3.oem3 (.const:xdc_runtime_Main_Module__diagsMask__C)

.const:xdc_runtime_Memory_defaultHeapInstance__C 
*          0    00000548    00000004     
                  00000548    00000004     empty_pem3.oem3 (.const:xdc_runtime_Memory_defaultHeapInstance__C)

.const:xdc_runtime_Startup_execImpl__C 
*          0    0000054c    00000004     
                  0000054c    00000004     empty_pem3.oem3 (.const:xdc_runtime_Startup_execImpl__C)

.const:xdc_runtime_Startup_maxPasses__C 
*          0    00000550    00000004     
                  00000550    00000004     empty_pem3.oem3 (.const:xdc_runtime_Startup_maxPasses__C)

.const:xdc_runtime_Startup_sfxnRts__C 
*          0    00000554    00000004     
                  00000554    00000004     empty_pem3.oem3 (.const:xdc_runtime_Startup_sfxnRts__C)

.const:xdc_runtime_Startup_sfxnTab__C 
*          0    00000558    00000004     
                  00000558    00000004     empty_pem3.oem3 (.const:xdc_runtime_Startup_sfxnTab__C)

.const:xdc_runtime_Startup_startModsFxn__C 
*          0    0000055c    00000004     
                  0000055c    00000004     empty_pem3.oem3 (.const:xdc_runtime_Startup_startModsFxn__C)

.const:xdc_runtime_SysCallback_abortFxn__C 
*          0    00000560    00000004     
                  00000560    00000004     empty_pem3.oem3 (.const:xdc_runtime_SysCallback_abortFxn__C)

.const:xdc_runtime_SysCallback_exitFxn__C 
*          0    00000564    00000004     
                  00000564    00000004     empty_pem3.oem3 (.const:xdc_runtime_SysCallback_exitFxn__C)

.const:xdc_runtime_System_abortFxn__C 
*          0    00000568    00000004     
                  00000568    00000004     empty_pem3.oem3 (.const:xdc_runtime_System_abortFxn__C)

.const:xdc_runtime_System_exitFxn__C 
*          0    0000056c    00000004     
                  0000056c    00000004     empty_pem3.oem3 (.const:xdc_runtime_System_exitFxn__C)

.const:xdc_runtime_System_maxAtexitHandlers__C 
*          0    00000570    00000004     
                  00000570    00000004     empty_pem3.oem3 (.const:xdc_runtime_System_maxAtexitHandlers__C)

.const:xdc_runtime_Text_charTab__C 
*          0    00000574    00000004     
                  00000574    00000004     empty_pem3.oem3 (.const:xdc_runtime_Text_charTab__C)

.const:xdc_runtime_Text_nameEmpty__C 
*          0    00000578    00000004     
                  00000578    00000004     empty_pem3.oem3 (.const:xdc_runtime_Text_nameEmpty__C)

.const:xdc_runtime_Text_nameStatic__C 
*          0    0000057c    00000004     
                  0000057c    00000004     empty_pem3.oem3 (.const:xdc_runtime_Text_nameStatic__C)

.const:xdc_runtime_Text_nameUnknown__C 
*          0    00000580    00000004     
                  00000580    00000004     empty_pem3.oem3 (.const:xdc_runtime_Text_nameUnknown__C)

.const:xdc_runtime_Main_Module__id__C 
*          0    00000584    00000002     
                  00000584    00000002     empty_pem3.oem3 (.const:xdc_runtime_Main_Module__id__C)

.const:xdc_runtime_Memory_Module__id__C 
*          0    00000586    00000002     
                  00000586    00000002     empty_pem3.oem3 (.const:xdc_runtime_Memory_Module__id__C)

.const:xdc_runtime_Text_charCnt__C 
*          0    00000588    00000002     
                  00000588    00000002     empty_pem3.oem3 (.const:xdc_runtime_Text_charCnt__C)

.const:xdc_runtime_Text_isLoaded__C 
*          0    0000058a    00000002     
                  0000058a    00000002     empty_pem3.oem3 (.const:xdc_runtime_Text_isLoaded__C)

.const:ti_sysbios_rom_ROM_AONRTCChannelEnable 
*          0    00000590    00000004     
                  00000590    00000004     empty_pem3.oem3 (.const:ti_sysbios_rom_ROM_AONRTCChannelEnable)

.const:ti_sysbios_rom_ROM_AONRTCCompareValueSet 
*          0    00000594    00000004     
                  00000594    00000004     empty_pem3.oem3 (.const:ti_sysbios_rom_ROM_AONRTCCompareValueSet)

.const:ti_sysbios_rom_ROM_AONRTCCurrentCompareValueGet 
*          0    00000598    00000004     
                  00000598    00000004     empty_pem3.oem3 (.const:ti_sysbios_rom_ROM_AONRTCCurrentCompareValueGet)

.const:ti_sysbios_rom_ROM_AONRTCEventClear 
*          0    0000059c    00000004     
                  0000059c    00000004     empty_pem3.oem3 (.const:ti_sysbios_rom_ROM_AONRTCEventClear)

.const:ti_sysbios_rom_ROM_ti_sysbios_family_arm_cc26xx_Timer_getCount64__E 
*          0    000005a0    00000004     
                  000005a0    00000004     empty_pem3.oem3 (.const:ti_sysbios_rom_ROM_ti_sysbios_family_arm_cc26xx_Timer_getCount64__E)

.const:ti_sysbios_rom_ROM_ti_sysbios_family_arm_cc26xx_Timer_getCurrentTick__E 
*          0    000005a4    00000004     
                  000005a4    00000004     empty_pem3.oem3 (.const:ti_sysbios_rom_ROM_ti_sysbios_family_arm_cc26xx_Timer_getCurrentTick__E)

.const:ti_sysbios_rom_ROM_ti_sysbios_family_arm_cc26xx_Timer_getMaxTicks__E 
*          0    000005a8    00000004     
                  000005a8    00000004     empty_pem3.oem3 (.const:ti_sysbios_rom_ROM_ti_sysbios_family_arm_cc26xx_Timer_getMaxTicks__E)

.const:ti_sysbios_rom_ROM_ti_sysbios_family_arm_cc26xx_Timer_setNextTick__E 
*          0    000005b0    00000004     
                  000005b0    00000004     empty_pem3.oem3 (.const:ti_sysbios_rom_ROM_ti_sysbios_family_arm_cc26xx_Timer_setNextTick__E)

.const:ti_sysbios_rom_ROM_ti_sysbios_family_arm_cc26xx_Timer_setThreshold__I 
*          0    000005b4    00000004     
                  000005b4    00000004     empty_pem3.oem3 (.const:ti_sysbios_rom_ROM_ti_sysbios_family_arm_cc26xx_Timer_setThreshold__I)

.const:ti_sysbios_rom_ROM_ti_sysbios_family_arm_cc26xx_Timer_start__E 
*          0    000005b8    00000004     
                  000005b8    00000004     empty_pem3.oem3 (.const:ti_sysbios_rom_ROM_ti_sysbios_family_arm_cc26xx_Timer_start__E)

.const:ti_sysbios_rom_ROM_ti_sysbios_family_arm_cc26xx_TimestampProvider_get32__E 
*          0    000005bc    00000004     
                  000005bc    00000004     empty_pem3.oem3 (.const:ti_sysbios_rom_ROM_ti_sysbios_family_arm_cc26xx_TimestampProvider_get32__E)

.const:ti_sysbios_rom_ROM_xdc_runtime_Startup_getState__I 
*          0    000005c0    00000004     
                  000005c0    00000004     empty_pem3.oem3 (.const:ti_sysbios_rom_ROM_xdc_runtime_Startup_getState__I)

.const:ti_sysbios_rom_ROM_xdc_runtime_System_SupportProxy_abort__E 
*          0    000005c4    00000004     
                  000005c4    00000004     empty_pem3.oem3 (.const:ti_sysbios_rom_ROM_xdc_runtime_System_SupportProxy_abort__E)

.const:ti_sysbios_rom_ROM_xdc_runtime_System_SupportProxy_exit__E 
*          0    000005c8    00000004     
                  000005c8    00000004     empty_pem3.oem3 (.const:ti_sysbios_rom_ROM_xdc_runtime_System_SupportProxy_exit__E)

.const:ti_sysbios_knl_Clock_Module_State_clockQ__O 
*          0    000005d0    00000004     
                  000005d0    00000004     empty_pem3.oem3 (.const:ti_sysbios_knl_Clock_Module_State_clockQ__O)

.const:ti_sysbios_knl_Mailbox_Instance_State_dataSem__O 
*          0    000005d8    00000004     
                  000005d8    00000004     empty_pem3.oem3 (.const:ti_sysbios_knl_Mailbox_Instance_State_dataSem__O)

.const:ti_sysbios_knl_Mailbox_Instance_State_freeQue__O 
*          0    000005dc    00000004     
                  000005dc    00000004     empty_pem3.oem3 (.const:ti_sysbios_knl_Mailbox_Instance_State_freeQue__O)

.const:ti_sysbios_knl_Mailbox_Instance_State_freeSem__O 
*          0    000005e0    00000004     
                  000005e0    00000004     empty_pem3.oem3 (.const:ti_sysbios_knl_Mailbox_Instance_State_freeSem__O)

.const:ti_sysbios_knl_Semaphore_Instance_State_pendQ__O 
*          0    000005e4    00000004     
                  000005e4    00000004     empty_pem3.oem3 (.const:ti_sysbios_knl_Semaphore_Instance_State_pendQ__O)

.data:ti_sysbios_knl_Task_Module__state__V 
*          0    20000100    00000044     UNINITIALIZED
                  20000100    00000044     empty_pem3.oem3 (.data:ti_sysbios_knl_Task_Module__state__V)

.data:ti_sysbios_family_arm_m3_Hwi_Module__state__V 
*          0    20000144    00000034     UNINITIALIZED
                  20000144    00000034     empty_pem3.oem3 (.data:ti_sysbios_family_arm_m3_Hwi_Module__state__V)

.data:ti_sysbios_BIOS_Module__state__V 
*          0    200001a4    00000024     UNINITIALIZED
                  200001a4    00000024     empty_pem3.oem3 (.data:ti_sysbios_BIOS_Module__state__V)

.data:ti_sysbios_knl_Swi_Module__state__V 
*          0    200001c8    0000001c     UNINITIALIZED
                  200001c8    0000001c     empty_pem3.oem3 (.data:ti_sysbios_knl_Swi_Module__state__V)

.data:ti_sysbios_family_arm_cc26xx_Timer_Module__state__V 
*          0    200001e4    00000008     UNINITIALIZED
                  200001e4    00000008     empty_pem3.oem3 (.data:ti_sysbios_family_arm_cc26xx_Timer_Module__state__V)

.data:xdc_runtime_System_Module__state__V 
*          0    200001f8    00000008     UNINITIALIZED
                  200001f8    00000008     empty_pem3.oem3 (.data:xdc_runtime_System_Module__state__V)

.bss       0    20000208    0000201b     UNINITIALIZED
                  20000208    00000800     (.common:morseReadTaskStack)
                  20000a08    00000800     (.common:uartTaskStack)
                  20001208    00000400     (.common:ti_sysbios_heaps_HeapMem_Instance_State_0_buf__A)
                  20001608    000002d0     (.common:mpuValues)
                  200018d8    00000200     empty_pem3.oem3 (.bss:taskStackSection)
                  20001ad8    0000012c     (.common:uartCC26XXObjects)
                  20001c04    00000120     rtsv7M3_T_le_eabi.lib : trgmsg.c.obj (.bss:_CIOBUF_)
                  20001d24    000000e0     (.common:i2cCC26xxObjects)
                  20001e04    000000c8     (.common:ti_sysbios_family_arm_m3_Hwi_dispatchTable)
                  20001ecc    000000a0     (.common:__TI_tmpnams)
                  20001f6c    00000080     (.common:xdc_runtime_SysMin_Module_State_0_outbuf__A)
                  20001fec    0000007c     drivers_cc26xxware.aem3 : PINCC26XX.oem3 (.bss:PIN_HandleTable)
                  20002068    00000064     (.common:allMessages)
                  200020cc    00000034                             : PINCC26XX.oem3 (.bss:PinSwi)
                  20002100    00000020     (.common:PinGpioConfigTable)
                  20002120    00000020     (.common:uartCC26XXRingBuffer)
                  20002140    0000001c     (.common:PinHwi)
                  2000215c    0000001c     (.common:PinSem)
                  20002178    00000018     (.common:SelfTest)
                  20002190    00000018     (.common:calculationValues)
                  200021a8    00000014     driverlib.lib : osc.obj (.bss:oscHfGlobals)
                  200021bc    00000010     project_main.obj (.bss)
                  200021cc    0000000c     project_main.obj (.bss:MpuPinState)
                  200021d8    0000000c     project_main.obj (.bss:buttonState)
                  200021e4    0000000c     project_main.obj (.bss:buzzerState)
                  200021f0    0000000c     project_main.obj (.bss:ledState)
                  200021fc    00000008     driverlib.lib : sys_ctrl.obj (.bss:powerQualGlobals)
                  20002204    00000008     (.common:parmbuf)
                  2000220c    00000004     (.common:PIN_NumPins)
                  20002210    00000004     (.common:aRes)
                  20002214    00000004     (.common:gRes)
                  20002218    00000004     (.common:i2c)
                  2000221c    00000004     (.common:pPinGpio)
                  20002220    00000001     (.common:driverlib_release_0_47020)
                  20002221    00000001     (.common:uartRxPowerConstraint)
                  20002222    00000001     (.common:uartTxPowerConstraint)

.data      0    20002228    00000570     UNINITIALIZED
                  20002228    00000110     drivers_cc26xxware.aem3 : PowerCC26XX.oem3 (.data:PowerCC26XX_module)
                  20002338    000000f0     rtsv7M3_T_le_eabi.lib : defs.c.obj (.data:_ftable)
                  20002428    00000078                           : host_device.c.obj (.data:_device)
                  200024a0    00000050                           : host_device.c.obj (.data:_stream)
                  200024f0    0000004c     empty_pem3.oem3 (.data:ti_sysbios_knl_Task_Object__table__V)
                  2000253c    00000004     drivers_cc26xxware.aem3 : I2C.oem3 (.data)
                  20002540    00000048     empty_pem3.oem3 (.data:ti_sysbios_family_arm_cc26xx_Timer_Object__table__V)
                  20002588    00000038     empty_pem3.oem3 (.data:ti_sysbios_gates_GateMutex_Object__table__V)
                  200025c0    00000030     empty_pem3.oem3 (.data:ti_sysbios_knl_Swi_Module_State_0_readyQ__A)
                  200025f0    00000030     empty_pem3.oem3 (.data:ti_sysbios_knl_Swi_Object__table__V)
                  20002620    00000020     empty_pem3.oem3 (.data:ti_sysbios_knl_Clock_Object__table__V)
                  20002640    00000020     empty_pem3.oem3 (.data:ti_sysbios_knl_Task_Module_State_0_readyQ__A)
                  20002660    0000001c     project_main.obj (.data)
                  2000267c    00000018     empty_pem3.oem3 (.data:ti_sysbios_family_arm_m3_Hwi_Object__table__V)
                  20002694    00000018     empty_pem3.oem3 (.data:ti_sysbios_heaps_HeapMem_Object__table__V)
                  200026ac    00000010     rtsv7M3_T_le_eabi.lib : defs.c.obj (.data)
                  200026bc    0000000c                           : exit.c.obj (.data:$O1$$)
                  200026c8    0000000c     mpu9250.obj (.data:accelBias)
                  200026d4    0000000c     mpu9250.obj (.data:gyroBias)
                  200026e0    0000000c     empty_pem3.oem3 (.data:xdc_runtime_SysMin_Module__state__V)
                  200026ec    00000008     rtsv7M3_T_le_eabi.lib : _lock.c.obj (.data:$O1$$)
                  200026f4    00000008     project_main.obj (.data:MpuPinConfig)
                  200026fc    00000008     project_main.obj (.data:buttonConfig)
                  20002704    00000008     project_main.obj (.data:buzzerConfig)
                  2000270c    00000008     project_main.obj (.data:ledConfig)
                  20002714    00000008     empty_pem3.oem3 (.data:ti_sysbios_family_arm_m3_Hwi_Module__root__V)
                  2000271c    00000008     empty_pem3.oem3 (.data:ti_sysbios_gates_GateHwi_Module__root__V)
                  20002724    00000008     empty_pem3.oem3 (.data:ti_sysbios_gates_GateMutex_Module__root__V)
                  2000272c    00000008     empty_pem3.oem3 (.data:ti_sysbios_hal_Hwi_Module__root__V)
                  20002734    00000008     empty_pem3.oem3 (.data:ti_sysbios_heaps_HeapMem_Module__root__V)
                  2000273c    00000008     empty_pem3.oem3 (.data:ti_sysbios_knl_Clock_Module__root__V)
                  20002744    00000008     empty_pem3.oem3 (.data:ti_sysbios_knl_Mailbox_Module__root__V)
                  2000274c    00000008     empty_pem3.oem3 (.data:ti_sysbios_knl_Queue_Module__root__V)
                  20002754    00000008     empty_pem3.oem3 (.data:ti_sysbios_knl_Semaphore_Module__root__V)
                  2000275c    00000008     empty_pem3.oem3 (.data:ti_sysbios_knl_Swi_Module__root__V)
                  20002764    00000008     empty_pem3.oem3 (.data:ti_sysbios_knl_Task_Module__root__V)
                  2000276c    00000008     empty_pem3.oem3 (.data:xdc_runtime_Registry_Module__state__V)
                  20002774    00000008     empty_pem3.oem3 (.data:xdc_runtime_System_Module_State_0_atexitHandlers__A)
                  2000277c    00000004     drivers_cc26xxware.aem3 : UART.oem3 (.data)
                  20002780    00000004     rtsv7M3_T_le_eabi.lib : errno.c.obj (.data)
                  20002784    00000004                           : stkdepth_vars.c.obj (.data)
                  20002788    00000004     empty_pem3.oem3 (.data:ti_sysbios_family_arm_m3_Hwi_Module_State_0_excContext__A)
                  2000278c    00000004     empty_pem3.oem3 (.data:ti_sysbios_family_arm_m3_Hwi_Module_State_0_excStack__A)
                  20002790    00000004     empty_pem3.oem3 (.data:ti_sysbios_knl_Task_Module_State_0_idleTask__A)
                  20002794    00000002     mpu9250.obj (.data)
                  20002796    00000002     empty_pem3.oem3 (.data:ti_sysbios_family_arm_m3_Hwi_Module_State_0_excActive__A)

.stack     0    20004d00    00000300     UNINITIALIZED
                  20004d00    00000300     --HOLE--

.const:xdc_runtime_Error_policy__C 
*          0    0000058c    00000001     
                  0000058c    00000001     empty_pem3.oem3 (.const:xdc_runtime_Error_policy__C)

.const:ti_sysbios_rom_ROM_ti_sysbios_family_arm_cc26xx_Timer_initDevice__I 
*          0    000005ac    00000004     
                  000005ac    00000004     empty_pem3.oem3 (.const:ti_sysbios_rom_ROM_ti_sysbios_family_arm_cc26xx_Timer_initDevice__I)

.const:ti_sysbios_gates_GateMutex_Instance_State_sem__O 
*          0    000005cc    00000004     
                  000005cc    00000004     empty_pem3.oem3 (.const:ti_sysbios_gates_GateMutex_Instance_State_sem__O)

.const:ti_sysbios_knl_Mailbox_Instance_State_dataQue__O 
*          0    000005d4    00000004     
                  000005d4    00000004     empty_pem3.oem3 (.const:ti_sysbios_knl_Mailbox_Instance_State_dataQue__O)

.const:ti_sysbios_knl_Task_Module_State_inactiveQ__O 
*          0    000005e8    00000004     
                  000005e8    00000004     empty_pem3.oem3 (.const:ti_sysbios_knl_Task_Module_State_inactiveQ__O)

.data:ti_sysbios_knl_Clock_Module__state__V 
*          0    20000178    0000002c     UNINITIALIZED
                  20000178    0000002c     empty_pem3.oem3 (.data:ti_sysbios_knl_Clock_Module__state__V)

.data:ti_sysbios_family_arm_cc26xx_TimestampProvider_Module__state__V 
*          0    200001ec    00000004     UNINITIALIZED
                  200001ec    00000004     empty_pem3.oem3 (.data:ti_sysbios_family_arm_cc26xx_TimestampProvider_Module__state__V)

.data:xdc_runtime_Startup_Module__state__V 
*          0    200001f0    00000008     UNINITIALIZED
                  200001f0    00000008     empty_pem3.oem3 (.data:xdc_runtime_Startup_Module__state__V)

.data:xdc_runtime_Memory_Module__state__V 
*          0    20000200    00000004     UNINITIALIZED
                  20000200    00000004     empty_pem3.oem3 (.data:xdc_runtime_Memory_Module__state__V)

.bootVecs 
*          0    00000000    00000008     DSECT
                  00000000    00000008     boot.aem3 : boot.oem3 (.bootVecs)

.resetVecs 
*          0    00000000    0000003c     
                  00000000    0000003c     empty_pem3.oem3 (.resetVecs)

.vecs      0    20000000    000000c8     NOLOAD SECTION
                  20000000    000000c8     empty_pem3.oem3 (.vecs)

xdc.meta   0    00000000    000000dd     COPY SECTION
                  00000000    000000dd     empty_pem3.oem3 (xdc.meta)

xdc.noload 
*          0    00000000    00000000     COPY SECTION

__llvm_prf_cnts 
*          0    20000000    00000000     UNINITIALIZED

.binit     0    00000000    00000000     

MODULE SUMMARY

       Module                            code    ro data   rw data
       ------                            ----    -------   -------
    ./
       project_main.obj                  2538    2         5064   
       CC2650STK.obj                     0       232       556    
       ccfg.obj                          0       88        0      
    +--+---------------------------------+-------+---------+---------+
       Total:                            2538    322       5620   
                                                                  
    ./sensors/
       mpu9250.obj                       3748    0         62     
    +--+---------------------------------+-------+---------+---------+
       Total:                            3748    0         62     
                                                                  
    /home/linuxlite/Desktop/harkkatyo/Debug/configPkg/package/cfg/
       empty_pem3.oem3                   744     1487      2866   
    +--+---------------------------------+-------+---------+---------+
       Total:                            744     1487      2866   
                                                                  
    /home/linuxlite/Desktop/harkkatyo/src/sysbios/rom_sysbios.aem3
       rom_sysbios.obj                   2515    0         0      
       rom_sysbios_config.obj            26      0         0      
    +--+---------------------------------+-------+---------+---------+
       Total:                            2541    0         0      
                                                                  
    /home/linuxlite/ti/ccs1040/ccs/tools/compiler/ti-cgt-arm_20.2.5.LTS/lib/rtsv7M3_T_le_eabi.lib
       _printfi.c.obj                    4827    0         0      
       e_pow.c.obj                       2500    48        0      
       fd_add_t2.asm.obj                 438     0         0      
       defs.c.obj                        0       0         416    
       trgmsg.c.obj                      108     0         288    
       e_sqrt.c.obj                      368     0         0      
       fd_div_t2.asm.obj                 310     0         0      
       fputs.c.obj                       276     0         0      
       fd_cmp_t2.asm.obj                 268     0         0      
       ctype.c.obj                       0       257       0      
       fd_mul_t2.asm.obj                 252     0         0      
       fs_add_t2.asm.obj                 250     0         0      
       setvbuf.c.obj                     220     0         0      
       s_scalbn.c.obj                    208     0         0      
       host_device.c.obj                 0       0         200    
       fs_cmp_t2.asm.obj                 192     0         0      
       memcpy_t2.asm.obj                 156     0         0      
       ull_div_t2.asm.obj                150     0         0      
       fs_div_t2.asm.obj                 146     0         0      
       fputc.c.obj                       140     0         0      
       fs_mul_t2.asm.obj                 122     0         0      
       memset_t2.asm.obj                 122     0         0      
       fclose.c.obj                      116     0         0      
       getdevice.c.obj                   116     0         0      
       printf.c.obj                      112     0         0      
       fd_tos_t2.asm.obj                 110     0         0      
       hostrename.c.obj                  108     0         0      
       copy_decompress_lzss.c.obj        104     0         0      
       hostlseek.c.obj                   104     0         0      
       hostopen.c.obj                    96      0         8      
       fseek.c.obj                       100     0         0      
       _io_perm.c.obj                    98      0         0      
       sprintf.c.obj                     98      0         0      
       close.c.obj                       92      0         0      
       s_frexp.c.obj                     92      0         0      
       hostread.c.obj                    88      0         0      
       hostwrite.c.obj                   88      0         0      
       _ltoa.c.obj                       84      0         0      
       atoi.c.obj                        76      0         0      
       cpy_tbl.c.obj                     76      0         0      
       fflush.c.obj                      76      0         0      
       fd_toi_t2.asm.obj                 72      0         0      
       hostclose.c.obj                   68      0         0      
       hostunlink.c.obj                  68      0         0      
       u_divt2.asm.obj                   64      0         0      
       fs_tod_t2.asm.obj                 56      0         0      
       i_tofs_t2.asm.obj                 56      0         0      
       strncpy.c.obj                     54      0         0      
       fopen.c.obj                       52      0         0      
       i_tofd_t2.asm.obj                 46      0         0      
       unlink.c.obj                      44      0         0      
       lseek.c.obj                       40      0         0      
       write.c.obj                       40      0         0      
       u_tofs_t2.asm.obj                 36      0         0      
       _lock.c.obj                       26      0         8      
       memccpy.c.obj                     34      0         0      
       memchr.c.obj                      32      0         0      
       args_main.c.obj                   24      0         0      
       ll_mul_t2.asm.obj                 24      0         0      
       strcmp.c.obj                      24      0         0      
       strchr.c.obj                      22      0         0      
       strcpy.c.obj                      22      0         0      
       strlen.c.obj                      20      0         0      
       wcslen.c.obj                      18      0         0      
       copy_decompress_none.c.obj        14      0         0      
       copy_zero_init.c.obj              12      0         0      
       errno.c.obj                       8       0         4      
       exit.c.obj                        0       0         12     
       s_copysign.c.obj                  12      0         0      
       stkdepth_vars.c.obj               0       0         4      
       div0.asm.obj                      2       0         0      
    +--+---------------------------------+-------+---------+---------+
       Total:                            13877   305       940    
                                                                  
    /home/linuxlite/ti/tirtos_cc13xx_cc26xx_2_21_01_08/products/bios_6_46_01_38/packages/ti/targets/arm/rtsarm/lib/auto_init.aem3
       auto_init.oem3                    160     0         0      
    +--+---------------------------------+-------+---------+---------+
       Total:                            160     0         0      
                                                                  
    /home/linuxlite/ti/tirtos_cc13xx_cc26xx_2_21_01_08/products/bios_6_46_01_38/packages/ti/targets/arm/rtsarm/lib/boot.aem3
       boot.oem3                         68      0         0      
    +--+---------------------------------+-------+---------+---------+
       Total:                            68      0         0      
                                                                  
    /home/linuxlite/ti/tirtos_cc13xx_cc26xx_2_21_01_08/products/cc26xxware_2_24_03_17272/driverlib/bin/ccs/driverlib.lib
       setup_rom.obj                     1300    0         0      
       sys_ctrl.obj                      712     0         8      
       setup.obj                         356     0         0      
       osc.obj                           332     0         20     
       chipinfo.obj                      228     0         0      
       ddi.obj                           180     0         0      
       aon_rtc.obj                       44      0         0      
       adi.obj                           40      0         0      
       aon_batmon.obj                    40      0         0      
       cpu.obj                           30      0         0      
       vims.obj                          14      0         0      
       driverlib_release.obj             0       0         1      
    +--+---------------------------------+-------+---------+---------+
       Total:                            3276    0         29     
                                                                  
    /home/linuxlite/ti/tirtos_cc13xx_cc26xx_2_21_01_08/products/tidrivers_cc13xx_cc26xx_2_21_01_01/packages/ti/drivers/lib/drivers_cc26xxware.aem3
       UARTCC26XX.oem3                   2664    104       2      
       PowerCC26XX.oem3                  2064    76        272    
       PINCC26XX.oem3                    1370    0         272    
       PowerCC26XX_calibrateRCOSC.oem3   1400    0         0      
       I2CCC26XX.oem3                    1358    32        0      
       RingBuf.oem3                      152     0         0      
       I2C.oem3                          130     16        4      
       UART.oem3                         102     36        4      
       List.oem3                         82      0         0      
    +--+---------------------------------+-------+---------+---------+
       Total:                            9322    264       554    
                                                                  
    /home/linuxlite/ti/tirtos_cc13xx_cc26xx_2_21_01_08/products/tidrivers_cc13xx_cc26xx_2_21_01_01/packages/ti/drivers/lib/power_cc26xx_tirtos.aem3
       PowerCC26XX_tirtos.oem3           212     0         0      
    +--+---------------------------------+-------+---------+---------+
       Total:                            212     0         0      
                                                                  
    /home/linuxlite/ti/tirtos_cc13xx_cc26xx_2_21_01_08/products/tidrivers_cc13xx_cc26xx_2_21_01_01/packages/ti/drivers/ports/lib/tirtosport.aem3
       HwiP_tirtos.oem3                  4       0         0      
    +--+---------------------------------+-------+---------+---------+
       Total:                            4       0         0      
                                                                  
       Stack:                            0       0         768    
       Linker Generated:                 416     693       0      
    +--+---------------------------------+-------+---------+---------+
       Grand Total:                      36906   3071      10839  


LINKER GENERATED COPY TABLES

__TI_cinit_table @ 00009c70 records: 12, size/record: 8, table size: 96
	.data: load addr=00009a10, load size=00000180 bytes, run addr=20002228, run size=00000570 bytes, compression=lzss
	.data:ti_sysbios_family_arm_m3_Hwi_Module__state__V: load addr=00009b90, load size=00000028 bytes, run addr=20000144, run size=00000034 bytes, compression=lzss
	.data:ti_sysbios_knl_Task_Module__state__V: load addr=00009bb8, load size=00000021 bytes, run addr=20000100, run size=00000044 bytes, compression=lzss
	.data:ti_sysbios_BIOS_Module__state__V: load addr=00009bd9, load size=0000001f bytes, run addr=200001a4, run size=00000024 bytes, compression=lzss
	.data:ti_sysbios_knl_Clock_Module__state__V: load addr=00009bf8, load size=0000001d bytes, run addr=20000178, run size=0000002c bytes, compression=lzss
	.data:ti_sysbios_knl_Swi_Module__state__V: load addr=00009c15, load size=00000010 bytes, run addr=200001c8, run size=0000001c bytes, compression=lzss
	.data:ti_sysbios_family_arm_cc26xx_Timer_Module__state__V: load addr=00009c34, load size=0000000b bytes, run addr=200001e4, run size=00000008 bytes, compression=lzss
	.data:xdc_runtime_System_Module__state__V: load addr=00009c3f, load size=0000000b bytes, run addr=200001f8, run size=00000008 bytes, compression=lzss
	.bss: load addr=00009c50, load size=00000008 bytes, run addr=20000208, run size=0000201b bytes, compression=zero_init
	.data:xdc_runtime_Memory_Module__state__V: load addr=00009c58, load size=00000008 bytes, run addr=20000200, run size=00000004 bytes, compression=lzss
	.data:ti_sysbios_family_arm_cc26xx_TimestampProvider_Module__state__V: load addr=00009c60, load size=00000007 bytes, run addr=200001ec, run size=00000004 bytes, compression=lzss
	.data:xdc_runtime_Startup_Module__state__V: load addr=00009c67, load size=00000007 bytes, run addr=200001f0, run size=00000008 bytes, compression=lzss


LINKER GENERATED HANDLER TABLE

__TI_handler_table @ 00009c28 records: 3, size/record: 4, table size: 12
	index: 0, handler: __TI_decompress_lzss
	index: 1, handler: __TI_decompress_none
	index: 2, handler: __TI_zero_init


FAR CALL TRAMPOLINES

callee name               trampoline name
   callee addr  tramp addr   call addr  call info
--------------  -----------  ---------  ----------------
xdc_runtime_Startup_startMods__I  $Tramp$TT$L$PI$$xdc_runtime_Startup_startMods__I
   1001c30d     00009498     000092c2   empty_pem3.oem3 (.text:xdc_runtime_Startup_exec__I)
ti_sysbios_knl_Clock_logTick__E  $Tramp$TT$L$PI$$ti_sysbios_knl_Clock_logTick__E
   1001be67     000094a0     0000926e   empty_pem3.oem3 (.text:ti_sysbios_knl_Clock_doTick__I)
ti_sysbios_knl_Task_Params__init__S  $Tramp$TT$L$PI$$ti_sysbios_knl_Task_Params__init__S
   1001c1d9     000094a8     00009216   project_main.obj (.text:ti_sysbios_knl_Task_Params_init)
ti_sysbios_BIOS_RtsGateProxy_leave__E  $Tramp$TT$L$PI$$ti_sysbios_BIOS_RtsGateProxy_leave__E
   1001c24d     000094b0     000091a2   empty_pem3.oem3 (.text:ti_sysbios_BIOS_rtsUnlock__I)
xdc_runtime_Memory_free__E  $Tramp$TT$L$PI$$xdc_runtime_Memory_free__E
   1001c801     000094b8     00008fda   empty_pem3.oem3 (.text:free)
ti_sysbios_BIOS_RtsGateProxy_enter__E  $Tramp$TT$L$PI$$ti_sysbios_BIOS_RtsGateProxy_enter__E
   1001c249     000094c0     00008e32   empty_pem3.oem3 (.text:ti_sysbios_BIOS_rtsLock__I)
xdc_runtime_Memory_alloc__E  $Tramp$TT$L$PI$$xdc_runtime_Memory_alloc__E
   1001c489     000094c8     00008a2e   empty_pem3.oem3 (.text:malloc)
xdc_runtime_Error_init__E  $Tramp$TT$L$PI$$xdc_runtime_Error_init__E
   1001c841     000094d0     00008a1e   empty_pem3.oem3 (.text:malloc)
ti_sysbios_knl_Task_startup__E  $Tramp$TT$L$PI$$ti_sysbios_knl_Task_startup__E
   1001c309     000094d8     00008978   empty_pem3.oem3 (.text:ti_sysbios_BIOS_startFunc__I)
ti_sysbios_knl_Swi_startup__E  $Tramp$TT$L$PI$$ti_sysbios_knl_Swi_startup__E
   1001c23d     000094e0     00008974   empty_pem3.oem3 (.text:ti_sysbios_BIOS_startFunc__I)
ti_sysbios_hal_Hwi_startup__E  $Tramp$TT$L$PI$$ti_sysbios_hal_Hwi_startup__E
   1001c28d     000094e8     00008970   empty_pem3.oem3 (.text:ti_sysbios_BIOS_startFunc__I)
ti_sysbios_family_arm_cc26xx_Timer_startup__E  $Tramp$TT$L$PI$$ti_sysbios_family_arm_cc26xx_Timer_startup__E
   1001b795     000094f0     0000896c   empty_pem3.oem3 (.text:ti_sysbios_BIOS_startFunc__I)
xdc_runtime_System_atexit__E  $Tramp$TT$L$PI$$xdc_runtime_System_atexit__E
   1001c681     000094f8     00008964   empty_pem3.oem3 (.text:ti_sysbios_BIOS_startFunc__I)
ti_sysbios_BIOS_setThreadType__E  $Tramp$TT$L$PI$$ti_sysbios_BIOS_setThreadType__E
   1001c045     00009500     00008930   empty_pem3.oem3 (.text:ti_sysbios_BIOS_atExitFunc__I)
                             000091fa   empty_pem3.oem3 (.text:ti_sysbios_BIOS_exitFunc__I)
xdc_runtime_Gate_leaveSystem__E  $Tramp$TT$L$PI$$xdc_runtime_Gate_leaveSystem__E
   1001c879     00009508     00008218   rom_sysbios.aem3 : rom_sysbios.obj (.text:xdc_runtime_SysMin_flush__E)
                             00008650                    : rom_sysbios.obj (.text:xdc_runtime_SysMin_putch__E)
xdc_runtime_Gate_enterSystem__E  $Tramp$TT$L$PI$$xdc_runtime_Gate_enterSystem__E
   1001c885     00009510     000081ea   rom_sysbios.aem3 : rom_sysbios.obj (.text:xdc_runtime_SysMin_flush__E)
                             00008632                    : rom_sysbios.obj (.text:xdc_runtime_SysMin_putch__E)
xdc_runtime_System_exit__E  $Tramp$TT$L$PI$$xdc_runtime_System_exit__E
   1001c7d1     00009518     0000818c   boot.aem3 : boot.oem3 (.text)
                             00009200   empty_pem3.oem3 (.text:ti_sysbios_BIOS_exitFunc__I)
ti_sysbios_knl_Clock_destruct  $Tramp$TT$L$PI$$ti_sysbios_knl_Clock_destruct
   1001c2b9     00009520     00006ad0   drivers_cc26xxware.aem3 : UARTCC26XX.oem3 (.text:UARTCC26XX_close)
ti_sysbios_knl_Semaphore_destruct  $Tramp$TT$L$PI$$ti_sysbios_knl_Semaphore_destruct
   1001c2e1     00009528     00006abc   drivers_cc26xxware.aem3 : UARTCC26XX.oem3 (.text:UARTCC26XX_close)
                             00006ac8                           : UARTCC26XX.oem3 (.text:UARTCC26XX_close)
                             0000734c                           : I2CCC26XX.oem3 (.text:I2CCC26XX_close)
                             00007358                           : I2CCC26XX.oem3 (.text:I2CCC26XX_close)
ti_sysbios_knl_Swi_destruct  $Tramp$TT$L$PI$$ti_sysbios_knl_Swi_destruct
   1001c2e9     00009530     00006ab0   drivers_cc26xxware.aem3 : UARTCC26XX.oem3 (.text:UARTCC26XX_close)
                             00007344                           : I2CCC26XX.oem3 (.text:I2CCC26XX_close)
ti_sysbios_family_arm_m3_Hwi_destruct  $Tramp$TT$L$PI$$ti_sysbios_family_arm_m3_Hwi_destruct
   1001c261     00009538     00006aa8   drivers_cc26xxware.aem3 : UARTCC26XX.oem3 (.text:UARTCC26XX_close)
                             0000733c                           : I2CCC26XX.oem3 (.text:I2CCC26XX_close)
ti_sysbios_knl_Clock_scheduleNextTick__E  $Tramp$TT$L$PI$$ti_sysbios_knl_Clock_scheduleNextTick__E
   1001bebd     00009540     00005f1e   rom_sysbios.aem3 : rom_sysbios.obj (.text:ti_sysbios_knl_Clock_workFuncDynamic__E)
ti_sysbios_knl_Clock_walkQueueDynamic__E  $Tramp$TT$L$PI$$ti_sysbios_knl_Clock_walkQueueDynamic__E
   1001a80d     00009548     00005ee6   rom_sysbios.aem3 : rom_sysbios.obj (.text:ti_sysbios_knl_Clock_workFuncDynamic__E)
                             00005f02                    : rom_sysbios.obj (.text:ti_sysbios_knl_Clock_workFuncDynamic__E)
ti_sysbios_knl_Clock_TimerProxy_getCurrentTick__E  $Tramp$TT$L$PI$$ti_sysbios_knl_Clock_TimerProxy_getCurrentTick__E
   1001c095     00009550     00005eb4   rom_sysbios.aem3 : rom_sysbios.obj (.text:ti_sysbios_knl_Clock_workFuncDynamic__E)
                             00008b06                    : rom_sysbios.obj (.text:ti_sysbios_knl_Clock_getTicksUntilInterrupt__E)
ti_sysbios_knl_Semaphore_post__E  $Tramp$TT$L$PI$$ti_sysbios_knl_Semaphore_post__E
   1001ac41     00009558     000059e4   drivers_cc26xxware.aem3 : I2CCC26XX.oem3 (.text:I2CCC26XX_transfer)
                             0000604a                           : PINCC26XX.oem3 (.text:PIN_open)
                             00009436                           : I2CCC26XX.oem3 (.text:I2CCC26XX_blockingCallback)
                             00009448                           : UARTCC26XX.oem3 (.text:readSemCallback)
                             00009450                           : UARTCC26XX.oem3 (.text:writeSemCallback)
ti_sysbios_family_arm_m3_Hwi_enableInterrupt__E  $Tramp$TT$L$PI$$ti_sysbios_family_arm_m3_Hwi_enableInterrupt__E
   1001b2dd     00009560     000059a0   drivers_cc26xxware.aem3 : I2CCC26XX.oem3 (.text:I2CCC26XX_transfer)
ti_sysbios_family_arm_m3_Hwi_disableInterrupt__E  $Tramp$TT$L$PI$$ti_sysbios_family_arm_m3_Hwi_disableInterrupt__E
   1001b299     00009568     0000598e   drivers_cc26xxware.aem3 : I2CCC26XX.oem3 (.text:I2CCC26XX_transfer)
ti_sysbios_BIOS_getCpuFreq__E  $Tramp$TT$L$PI$$ti_sysbios_BIOS_getCpuFreq__E
   1001bff9     00009570     000058b4   drivers_cc26xxware.aem3 : UARTCC26XX.oem3 (.text:UARTCC26XX_initHw)
                             00007ea0                           : I2CCC26XX.oem3 (.text:I2CCC26XX_initHw)
ti_sysbios_knl_Swi_post__E  $Tramp$TT$L$PI$$ti_sysbios_knl_Swi_post__E
   1001b321     00009578     000048a0   drivers_cc26xxware.aem3 : UARTCC26XX.oem3 (.text:UARTCC26XX_read)
                             00004a34                           : UARTCC26XX.oem3 (.text:UARTCC26XX_hwiIntFxn)
                             00005186                           : I2CCC26XX.oem3 (.text:I2CCC26XX_hwiFxn)
                             000059de                           : I2CCC26XX.oem3 (.text:I2CCC26XX_transfer)
                             00007a60                           : I2CCC26XX.oem3 (.text:I2CCC26XX_swiFxn)
                             000091c0   rom_sysbios.aem3 : rom_sysbios.obj (.text:ti_sysbios_knl_Swi_or__E)
                             00009276   empty_pem3.oem3 (.text:ti_sysbios_knl_Clock_doTick__I)
ti_sysbios_knl_Semaphore_pend__E  $Tramp$TT$L$PI$$ti_sysbios_knl_Semaphore_pend__E
   1001a0cd     00009580     0000485e   drivers_cc26xxware.aem3 : UARTCC26XX.oem3 (.text:UARTCC26XX_read)
                             00004b4e                           : UARTCC26XX.oem3 (.text:UARTCC26XX_write)
                             00004b8a                           : UARTCC26XX.oem3 (.text:UARTCC26XX_write)
                             00005986                           : I2CCC26XX.oem3 (.text:I2CCC26XX_transfer)
                             000059b6                           : I2CCC26XX.oem3 (.text:I2CCC26XX_transfer)
                             00005fe2                           : PINCC26XX.oem3 (.text:PIN_open)
                             00006d0a                           : UARTCC26XX.oem3 (.text:writeTxFifoFlush)
ti_sysbios_knl_Clock_setTimeout__E  $Tramp$TT$L$PI$$ti_sysbios_knl_Clock_setTimeout__E
   1001c2c1     00009588     00004756   drivers_cc26xxware.aem3 : PowerCC26XX.oem3 (.text:Power_init)
                             0000555e   power_cc26xx_tirtos.aem3 : PowerCC26XX_tirtos.oem3 (.text:PowerCC26XX_standbyPolicy)
                             000060de   drivers_cc26xxware.aem3 : UARTCC26XX.oem3 (.text:writeFinishedDoCallback)
                             0000638c                           : PowerCC26XX.oem3 (.text:switchXOSCHFclockFunc)
                             0000684a                           : PowerCC26XX.oem3 (.text:disableLFClockQualifiers)
                             00007bb4                           : PowerCC26XX.oem3 (.text:configureXOSCHF)
                             00007e84                           : UARTCC26XX.oem3 (.text:startTxFifoEmptyClk)
ti_sysbios_knl_Clock_start__E  $Tramp$TT$L$PI$$ti_sysbios_knl_Clock_start__E
   1001bfe3     00009590     00003f00   drivers_cc26xxware.aem3 : PowerCC26XX_calibrateRCOSC.oem3 (.text:PowerCC26XX_doCalibrate)
                             0000475c                           : PowerCC26XX.oem3 (.text:Power_init)
                             00005564   power_cc26xx_tirtos.aem3 : PowerCC26XX_tirtos.oem3 (.text:PowerCC26XX_standbyPolicy)
                             000060e4   drivers_cc26xxware.aem3 : UARTCC26XX.oem3 (.text:writeFinishedDoCallback)
                             00006392                           : PowerCC26XX.oem3 (.text:switchXOSCHFclockFunc)
                             00006850                           : PowerCC26XX.oem3 (.text:disableLFClockQualifiers)
                             00007bba                           : PowerCC26XX.oem3 (.text:configureXOSCHF)
                             00007e8a                           : UARTCC26XX.oem3 (.text:startTxFifoEmptyClk)
                             00008e7e   rom_sysbios.aem3 : rom_sysbios.obj (.text:ti_sysbios_knl_Clock_stop__E)
xdc_runtime_System_abortSpin__E  $Tramp$TT$L$PI$$xdc_runtime_System_abortSpin__E
   1001c899     00009598     00003e82   drivers_cc26xxware.aem3 : PowerCC26XX_calibrateRCOSC.oem3 (.text:PowerCC26XX_doCalibrate)
                             0000758e                           : PowerCC26XX_calibrateRCOSC.oem3 (.text:PowerCC26XX_RCOSC_clockFunc)
ti_sysbios_knl_Clock_construct  $Tramp$TT$L$PI$$ti_sysbios_knl_Clock_construct
   1001b579     000095a0     00003bc2   drivers_cc26xxware.aem3 : UARTCC26XX.oem3 (.text:UARTCC26XX_open)
                             000046c2                           : PowerCC26XX.oem3 (.text:Power_init)
                             000046d0                           : PowerCC26XX.oem3 (.text:Power_init)
                             000046de                           : PowerCC26XX.oem3 (.text:Power_init)
                             00007010                           : PowerCC26XX.oem3 (.text:PowerCC26XX_calibrate)
ti_sysbios_knl_Clock_Params__init__S  $Tramp$TT$L$PI$$ti_sysbios_knl_Clock_Params__init__S
   1001c185     000095a8     00003baa   drivers_cc26xxware.aem3 : UARTCC26XX.oem3 (.text:UARTCC26XX_open)
                             000046aa                           : PowerCC26XX.oem3 (.text:Power_init)
                             00006ff8                           : PowerCC26XX.oem3 (.text:PowerCC26XX_calibrate)
ti_sysbios_family_arm_m3_Hwi_restoreFxn__E  $Tramp$TT$L$PI$$ti_sysbios_family_arm_m3_Hwi_restoreFxn__E
   1001c219     000095b0     00003a82   drivers_cc26xxware.aem3 : UARTCC26XX.oem3 (.text:UARTCC26XX_open)
                             00003a92                           : UARTCC26XX.oem3 (.text:UARTCC26XX_open)
                             00003b18                           : UARTCC26XX.oem3 (.text:UARTCC26XX_open)
                             0000483c                           : UARTCC26XX.oem3 (.text:UARTCC26XX_read)
                             0000487a                           : UARTCC26XX.oem3 (.text:UARTCC26XX_read)
                             00004b06                           : UARTCC26XX.oem3 (.text:UARTCC26XX_write)
                             00004b22                           : UARTCC26XX.oem3 (.text:UARTCC26XX_write)
                             00004bc0                           : UARTCC26XX.oem3 (.text:UARTCC26XX_write)
                             00004de8                           : I2CCC26XX.oem3 (.text:I2CCC26XX_open)
                             00004df8                           : I2CCC26XX.oem3 (.text:I2CCC26XX_open)
                             00005416                           : PINCC26XX.oem3 (.text:PINCC26XX_setIoCfg)
                             000056aa                           : PowerCC26XX.oem3 (.text:Power_releaseDependency)
                             0000577a                           : PowerCC26XX.oem3 (.text:Power_setDependency)
                             00005960                           : I2CCC26XX.oem3 (.text:I2CCC26XX_transfer)
                             00005972                           : I2CCC26XX.oem3 (.text:I2CCC26XX_transfer)
                             0000609a                           : UARTCC26XX.oem3 (.text:writeFinishedDoCallback)
                             0000629e                           : I2CCC26XX.oem3 (.text:I2CCC26XX_cancel)
                             000063ba                           : PowerCC26XX.oem3 (.text:switchXOSCHFclockFunc)
                             00006502                           : UARTCC26XX.oem3 (.text:UARTCC26XX_writeCancel)
                             0000650e                           : UARTCC26XX.oem3 (.text:UARTCC26XX_writeCancel)
                             00006550                           : UARTCC26XX.oem3 (.text:UARTCC26XX_writeCancel)
                             00006adc                           : UARTCC26XX.oem3 (.text:UARTCC26XX_close)
                             0000706c                           : UARTCC26XX.oem3 (.text:UARTCC26XX_readCancel)
                             00007078                           : UARTCC26XX.oem3 (.text:UARTCC26XX_readCancel)
                             00007082                           : UARTCC26XX.oem3 (.text:UARTCC26XX_readCancel)
                             0000736c                           : I2CCC26XX.oem3 (.text:I2CCC26XX_close)
                             00007426                           : UARTCC26XX.oem3 (.text:UARTCC26XX_control)
                             00007a9e                           : PowerCC26XX_calibrateRCOSC.oem3 (.text:PowerCC26XX_initiateCalibration)
                             00007fa2                           : PINCC26XX.oem3 (.text:PIN_setOutputEnable)
                             000080a4                           : RingBuf.oem3 (.text:RingBuf_put)
                             000080ce                           : RingBuf.oem3 (.text:RingBuf_put)
                             000082de                           : RingBuf.oem3 (.text:RingBuf_get)
                             000082e6                           : RingBuf.oem3 (.text:RingBuf_get)
                             00008446                           : UARTCC26XX.oem3 (.text:UARTCC26XX_swiIntFxn)
                             00008888                           : PowerCC26XX.oem3 (.text:Power_releaseConstraint)
                             000088b8                           : PowerCC26XX.oem3 (.text:Power_setConstraint)
                             00008c60                           : List.oem3 (.text:List_put)
                             00008e00                           : PowerCC26XX.oem3 (.text:Power_unregisterNotify)
ti_sysbios_family_arm_m3_Hwi_disableFxn__E  $Tramp$TT$L$PI$$ti_sysbios_family_arm_m3_Hwi_disableFxn__E
   1001c149     000095b8     00003a78   drivers_cc26xxware.aem3 : UARTCC26XX.oem3 (.text:UARTCC26XX_open)
                             00003b12                           : UARTCC26XX.oem3 (.text:UARTCC26XX_open)
                             00004824                           : UARTCC26XX.oem3 (.text:UARTCC26XX_read)
                             00004866                           : UARTCC26XX.oem3 (.text:UARTCC26XX_read)
                             00004ae8                           : UARTCC26XX.oem3 (.text:UARTCC26XX_write)
                             00004b0a                           : UARTCC26XX.oem3 (.text:UARTCC26XX_write)
                             00004b62                           : UARTCC26XX.oem3 (.text:UARTCC26XX_write)
                             00004bac                           : UARTCC26XX.oem3 (.text:UARTCC26XX_write)
                             00004ddc                           : I2CCC26XX.oem3 (.text:I2CCC26XX_open)
                             000053f8                           : PINCC26XX.oem3 (.text:PINCC26XX_setIoCfg)
                             000055f6                           : PowerCC26XX.oem3 (.text:Power_releaseDependency)
                             000056ca                           : PowerCC26XX.oem3 (.text:Power_setDependency)
                             0000594c                           : I2CCC26XX.oem3 (.text:I2CCC26XX_transfer)
                             00006082                           : UARTCC26XX.oem3 (.text:writeFinishedDoCallback)
                             0000622e                           : I2CCC26XX.oem3 (.text:I2CCC26XX_cancel)
                             00006344                           : PowerCC26XX.oem3 (.text:switchXOSCHFclockFunc)
                             000064f2                           : UARTCC26XX.oem3 (.text:UARTCC26XX_writeCancel)
                             0000653a                           : UARTCC26XX.oem3 (.text:UARTCC26XX_writeCancel)
                             00006ad4                           : UARTCC26XX.oem3 (.text:UARTCC26XX_close)
                             00007054                           : UARTCC26XX.oem3 (.text:UARTCC26XX_readCancel)
                             00007070                           : UARTCC26XX.oem3 (.text:UARTCC26XX_readCancel)
                             00007364                           : I2CCC26XX.oem3 (.text:I2CCC26XX_close)
                             000073fe                           : UARTCC26XX.oem3 (.text:UARTCC26XX_control)
                             00007a8a                           : PowerCC26XX_calibrateRCOSC.oem3 (.text:PowerCC26XX_initiateCalibration)
                             00007f8c                           : PINCC26XX.oem3 (.text:PIN_setOutputEnable)
                             00008096                           : RingBuf.oem3 (.text:RingBuf_put)
                             000082b6                           : RingBuf.oem3 (.text:RingBuf_get)
                             0000842e                           : UARTCC26XX.oem3 (.text:UARTCC26XX_swiIntFxn)
                             00008868                           : PowerCC26XX.oem3 (.text:Power_releaseConstraint)
                             00008898                           : PowerCC26XX.oem3 (.text:Power_setConstraint)
                             00008df0                           : PowerCC26XX.oem3 (.text:Power_unregisterNotify)
                             00009474   tirtosport.aem3 : HwiP_tirtos.oem3 (.text:HwiP_disable)
ti_sysbios_knl_Swi_construct  $Tramp$TT$L$PI$$ti_sysbios_knl_Swi_construct
   1001b085     000095c0     00003848   drivers_cc26xxware.aem3 : PINCC26XX.oem3 (.text:PIN_init)
                             00003b66                           : UARTCC26XX.oem3 (.text:UARTCC26XX_open)
                             00004e54                           : I2CCC26XX.oem3 (.text:I2CCC26XX_open)
ti_sysbios_knl_Swi_Params__init__S  $Tramp$TT$L$PI$$ti_sysbios_knl_Swi_Params__init__S
   1001c1cd     000095c8     00003836   drivers_cc26xxware.aem3 : PINCC26XX.oem3 (.text:PIN_init)
                             00003b50                           : UARTCC26XX.oem3 (.text:UARTCC26XX_open)
                             00004e40                           : I2CCC26XX.oem3 (.text:I2CCC26XX_open)
ti_sysbios_family_arm_m3_Hwi_construct  $Tramp$TT$L$PI$$ti_sysbios_family_arm_m3_Hwi_construct
   1001af29     000095d0     0000382a   drivers_cc26xxware.aem3 : PINCC26XX.oem3 (.text:PIN_init)
                             00003b44                           : UARTCC26XX.oem3 (.text:UARTCC26XX_open)
                             00004e34                           : I2CCC26XX.oem3 (.text:I2CCC26XX_open)
                             00007020                           : PowerCC26XX.oem3 (.text:PowerCC26XX_calibrate)
ti_sysbios_family_arm_m3_Hwi_Params__init__S  $Tramp$TT$L$PI$$ti_sysbios_family_arm_m3_Hwi_Params__init__S
   1001c13d     000095d8     00003814   drivers_cc26xxware.aem3 : PINCC26XX.oem3 (.text:PIN_init)
                             00003b28                           : UARTCC26XX.oem3 (.text:UARTCC26XX_open)
                             00004e1c                           : I2CCC26XX.oem3 (.text:I2CCC26XX_open)
ti_sysbios_knl_Semaphore_construct  $Tramp$TT$L$PI$$ti_sysbios_knl_Semaphore_construct
   1001b709     000095e0     000037b2   drivers_cc26xxware.aem3 : PINCC26XX.oem3 (.text:PIN_init)
                             00003b86                           : UARTCC26XX.oem3 (.text:UARTCC26XX_open)
                             00003b9a                           : UARTCC26XX.oem3 (.text:UARTCC26XX_open)
                             00004e70                           : I2CCC26XX.oem3 (.text:I2CCC26XX_open)
                             00004e80                           : I2CCC26XX.oem3 (.text:I2CCC26XX_open)
ti_sysbios_knl_Semaphore_Params__init__S  $Tramp$TT$L$PI$$ti_sysbios_knl_Semaphore_Params__init__S
   1001c1c1     000095e8     000037a0   drivers_cc26xxware.aem3 : PINCC26XX.oem3 (.text:PIN_init)
                             00003b72                           : UARTCC26XX.oem3 (.text:UARTCC26XX_open)
                             00004e60                           : I2CCC26XX.oem3 (.text:I2CCC26XX_open)
ti_sysbios_BIOS_start__E  $Tramp$TT$L$PI$$ti_sysbios_BIOS_start__E
   1001c055     000095f0     00003232   project_main.obj (.text:main)
ti_sysbios_knl_Task_create  $Tramp$TT$L$PI$$ti_sysbios_knl_Task_create
   1001ae19     000095f8     000031f4   project_main.obj (.text:main)
                             0000321e   project_main.obj (.text:main)
ti_sysbios_knl_Task_restore__E  $Tramp$TT$L$PI$$ti_sysbios_knl_Task_restore__E
   1001ba49     00009600     00002f08   drivers_cc26xxware.aem3 : PowerCC26XX.oem3 (.text:Power_sleep)
ti_sysbios_knl_Swi_restore__E  $Tramp$TT$L$PI$$ti_sysbios_knl_Swi_restore__E
   1001b5e1     00009608     00002efe   drivers_cc26xxware.aem3 : PowerCC26XX.oem3 (.text:Power_sleep)
ti_sysbios_knl_Swi_disable__E  $Tramp$TT$L$PI$$ti_sysbios_knl_Swi_disable__E
   1001c0d5     00009610     00002d5a   drivers_cc26xxware.aem3 : PowerCC26XX.oem3 (.text:Power_sleep)
                             00008926   empty_pem3.oem3 (.text:ti_sysbios_BIOS_atExitFunc__I)
ti_sysbios_knl_Task_disable__E  $Tramp$TT$L$PI$$ti_sysbios_knl_Task_disable__E
   1001c0f5     00009618     00002d42   drivers_cc26xxware.aem3 : PowerCC26XX.oem3 (.text:Power_sleep)
                             0000892a   empty_pem3.oem3 (.text:ti_sysbios_BIOS_atExitFunc__I)
ti_sysbios_knl_Task_sleep__E  $Tramp$TT$L$PI$$ti_sysbios_knl_Task_sleep__E
   1001a96d     00009620     00002554   project_main.obj (.text:morseReadTask)
                             0000265e   project_main.obj (.text:morseReadTask)
                             0000266c   project_main.obj (.text:morseReadTask)
                             00005062   project_main.obj (.text:uartTaskFxn)
                             00005b10   project_main.obj (.text:playMorseCode)
                             00005b20   project_main.obj (.text:playMorseCode)
                             000070f6   project_main.obj (.text:playSound)
                             00008ca4   mpu9250.obj (.text:delay)
xdc_runtime_System_abort__E  $Tramp$TT$L$PI$$xdc_runtime_System_abort__E
   1001c749     00009628     00002494   project_main.obj (.text:morseReadTask)
                             00003160   project_main.obj (.text:main)
                             0000317c   project_main.obj (.text:main)
                             00003194   project_main.obj (.text:main)
                             000031a6   project_main.obj (.text:main)
                             000031be   project_main.obj (.text:main)
                             000031d6   project_main.obj (.text:main)
                             00003200   project_main.obj (.text:main)
                             0000322a   project_main.obj (.text:main)
                             0000500a   project_main.obj (.text:uartTaskFxn)
ti_sysbios_knl_Clock_getTicks__E  $Tramp$TT$L$PI$$ti_sysbios_knl_Clock_getTicks__E
   1001b6d9     00009630     0000244e   project_main.obj (.text:morseReadTask)
                             000070ac   project_main.obj (.text:playSound)
                             000070fa   project_main.obj (.text:playSound)

[52 trampolines]
[205 trampoline calls]


GLOBAL SYMBOLS: SORTED ALPHABETICALLY BY Name 

address   name                                                                      
-------   ----                                                                      
20002795  Ascale                                                                    
0000973c  BoardGpioInitTable                                                        
00008507  C$$IO$$                                                                   
20002794  Gscale                                                                    
000080d9  HOSTclose                                                                 
00007111  HOSTlseek                                                                 
0000750d  HOSTopen                                                                  
00007971  HOSTread                                                                  
00006ef5  HOSTrename                                                                
0000811d  HOSTunlink                                                                
000079c9  HOSTwrite                                                                 
00009475  HwiP_disable                                                              
1001c219  HwiP_restore                                                              
00006221  I2CCC26XX_cancel                                                          
00007319  I2CCC26XX_close                                                           
0000945d  I2CCC26XX_control                                                         
0000991c  I2CCC26XX_fxnTable                                                        
000093ed  I2CCC26XX_init                                                            
00004dcd  I2CCC26XX_open                                                            
0000592d  I2CCC26XX_transfer                                                        
000092cd  I2C_Params_init                                                           
0000995c  I2C_config                                                                
000099c8  I2C_defaultParams                                                         
000084a1  I2C_init                                                                  
00008805  I2C_open                                                                  
000093f7  I2C_transfer                                                              
00009401  List_empty                                                                
00009479  List_head                                                                 
0000947d  List_next                                                                 
00008c41  List_put                                                                  
00008fad  List_remove                                                               
00001a01  MPU9250SelfTest                                                           
00008b79  NOROM_AONBatMonTemperatureGetDegC                                         
0000921d  NOROM_AONRTCCurrent64BitValueGet                                          
00008ffd  NOROM_AONRTCCurrentCompareValueGet                                        
00009367  NOROM_CPUcpsid                                                            
00009373  NOROM_CPUcpsie                                                            
00009463  NOROM_CPUdelay                                                            
00007ee1  NOROM_ChipInfo_GetChipFamily                                              
00006d39  NOROM_ChipInfo_GetHwRevision                                              
00009015  NOROM_ChipInfo_GetPackageType                                             
00008271  NOROM_DDI16BitfieldRead                                                   
00007f29  NOROM_DDI16BitfieldWrite                                                  
00008a71  NOROM_DDI32RegWrite                                                       
00008ee9  NOROM_OSCClockSourceGet                                                   
00007d1d  NOROM_OSCClockSourceSet                                                   
000076ed  NOROM_OSCHF_AttemptToSwitchToXosc                                         
00008699  NOROM_OSCHF_SwitchToRcOscTurnOffXosc                                      
0000902d  NOROM_OSCHF_TurnOnXosc                                                    
000083b1  NOROM_OSC_HPOSCRelativeFrequencyOffsetGet                                 
00006a05  NOROM_SetupAfterColdResetWakeupFromShutDownCfg1                           
0000527d  NOROM_SetupAfterColdResetWakeupFromShutDownCfg2                           
0000430d  NOROM_SetupAfterColdResetWakeupFromShutDownCfg3                           
00009045  NOROM_SetupGetTrimForAdcShModeEn                                          
0000905d  NOROM_SetupGetTrimForAdcShVbufEn                                          
00006f61  NOROM_SetupGetTrimForAmpcompCtrl                                          
00009075  NOROM_SetupGetTrimForAmpcompTh1                                           
00008f05  NOROM_SetupGetTrimForAmpcompTh2                                           
00007179  NOROM_SetupGetTrimForAnabypassValue1                                      
0000908d  NOROM_SetupGetTrimForDblrLoopFilterResetVoltage                           
00008a9d  NOROM_SetupGetTrimForRadcExtCfg                                           
000090a5  NOROM_SetupGetTrimForRcOscLfIBiasTrim                                     
00008f21  NOROM_SetupGetTrimForRcOscLfRtuneCtuneTrim                                
00008dcd  NOROM_SetupGetTrimForXoscHfCtl                                            
000092dd  NOROM_SetupGetTrimForXoscHfFastStart                                      
000092ed  NOROM_SetupGetTrimForXoscHfIbiastherm                                     
000090bd  NOROM_SetupGetTrimForXoscLfRegulatorAndCmirrwrRatio                       
00008835  NOROM_SetupSetAonRtcSubSecInc                                             
00007ccd  NOROM_SetupSetCacheModeAccordingToCcfgSetting                             
00005c1d  NOROM_SetupTrimDevice                                                     
00007749  NOROM_SysCtrlAdjustRechargeAfterPowerDown                                 
00002f49  NOROM_SysCtrlSetRechargeBeforePowerDown                                   
000071e1  NOROM_SysCtrl_DCDC_VoltageConditionalControl                              
00009231  NOROM_ThisCodeIsBuiltForCC26xxHwRev22AndLater_HaltIfViolated              
0000933d  NOROM_VIMSModeGet                                                         
00008c69  PINCC26XX_getPinCount                                                     
000099e4  PINCC26XX_hwAttrs                                                         
00008ac9  PINCC26XX_setMux                                                          
20001fec  PIN_HandleTable                                                           
2000220c  PIN_NumPins                                                               
00008ead  PIN_close                                                                 
00009245  PIN_getOutputValue                                                        
000036e9  PIN_init                                                                  
00005fd1  PIN_open                                                                  
0000937f  PIN_registerIntCb                                                         
000077a5  PIN_remove                                                                
000086cd  PIN_setConfig                                                             
00007f71  PIN_setOutputEnable                                                       
000083ed  PIN_setOutputValue                                                        
0000756d  PowerCC26XX_RCOSC_clockFunc                                               
00006af5  PowerCC26XX_auxISR                                                        
00006fcd  PowerCC26XX_calibrate                                                     
000099b8  PowerCC26XX_config                                                        
00003da5  PowerCC26XX_doCalibrate                                                   
00007a79  PowerCC26XX_initiateCalibration                                           
20002228  PowerCC26XX_module                                                        
0000551d  PowerCC26XX_standbyPolicy                                                 
0000938d  Power_getConstraintMask                                                   
00009399  Power_getDependencyCount                                                  
00008ecb  Power_getTransitionLatency                                                
000090d5  Power_idleFunc                                                            
0000467d  Power_init                                                                
00008ba1  Power_registerNotify                                                      
00008865  Power_releaseConstraint                                                   
000055f1  Power_releaseDependency                                                   
00008895  Power_setConstraint                                                       
000056c5  Power_setDependency                                                       
00002d21  Power_sleep                                                               
00008ded  Power_unregisterNotify                                                    
00008161  ResetISR                                                                  
00009295  RingBuf_construct                                                         
000082b1  RingBuf_get                                                               
00008091  RingBuf_put                                                               
UNDEFED   SHT$$INIT_ARRAY$$Base                                                     
UNDEFED   SHT$$INIT_ARRAY$$Limit                                                    
00008bc9  SafeHapiVoid                                                              
20002178  SelfTest                                                                  
00006a7d  UARTCC26XX_close                                                          
000073e1  UARTCC26XX_control                                                        
000098a8  UARTCC26XX_fxnTable                                                       
000049c9  UARTCC26XX_hwiIntFxn                                                      
000090ed  UARTCC26XX_init                                                           
00003a65  UARTCC26XX_open                                                           
00004799  UARTCC26XX_read                                                           
00007039  UARTCC26XX_readCancel                                                     
00009469  UARTCC26XX_readPolling                                                    
00008429  UARTCC26XX_swiIntFxn                                                      
00004ad9  UARTCC26XX_write                                                          
000064e9  UARTCC26XX_writeCancel                                                    
0000946f  UARTCC26XX_writePolling                                                   
00009105  UART_Params_init                                                          
00009974  UART_config                                                               
000098f8  UART_defaultParams                                                        
000088c5  UART_open                                                                 
0000940b  UART_read                                                                 
00009415  UART_readCancel                                                           
0000941f  UART_write                                                                
00000000  __ASM__                                                                   
20001c04  __CIOBUF_                                                                 
00000057  __ISA__                                                                   
00000069  __PLAT__                                                                  
20005000  __STACK_END                                                               
00000300  __STACK_SIZE                                                              
00000090  __TARG__                                                                  
00009c70  __TI_CINIT_Base                                                           
00009cd0  __TI_CINIT_Limit                                                          
00009c28  __TI_Handler_Table_Base                                                   
00009c34  __TI_Handler_Table_Limit                                                  
00005cc5  __TI_auto_init                                                            
00008701  __TI_cleanup                                                              
200026bc  __TI_cleanup_ptr                                                          
00006b69  __TI_closefile                                                            
00007249  __TI_decompress_lzss                                                      
0000934b  __TI_decompress_none                                                      
00007d69  __TI_doflush                                                              
200026c0  __TI_dtors_ptr                                                            
200026c4  __TI_enable_exit_profile_output                                           
200026ac  __TI_ft_end                                                               
00007b27  __TI_ltoa                                                                 
ffffffff  __TI_pprof_out_hndl                                                       
000005ed  __TI_printfi                                                              
ffffffff  __TI_prof_data_size                                                       
ffffffff  __TI_prof_data_start                                                      
00008735  __TI_readmsg                                                              
00009a10  __TI_static_base__                                                        
20001ecc  __TI_tmpnams                                                              
000084d9  __TI_writemsg                                                             
000074a9  __TI_wrt_ok                                                               
000093c9  __TI_zero_init                                                            
000000b5  __TRDR__                                                                  
0000668d  __aeabi_cdcmpeq                                                           
0000668d  __aeabi_cdcmple                                                           
00006713  __aeabi_cdrcmple                                                          
000075cd  __aeabi_cfcmpeq                                                           
000075cd  __aeabi_cfcmple                                                           
0000762d  __aeabi_cfrcmple                                                          
00006e17  __aeabi_d2f                                                               
00008049  __aeabi_d2iz                                                              
000038b7  __aeabi_dadd                                                              
000041d5  __aeabi_ddiv                                                              
00004bd5  __aeabi_dmul                                                              
000038ad  __aeabi_dsub                                                              
0000943d  __aeabi_errno_addr                                                        
00008549  __aeabi_f2d                                                               
00004cd5  __aeabi_fadd                                                              
0000618d  __aeabi_fdiv                                                              
00006911  __aeabi_fmul                                                              
00004cd1  __aeabi_fsub                                                              
00008a43  __aeabi_i2d                                                               
00008581  __aeabi_i2f                                                               
0000430b  __aeabi_idiv0                                                             
0000430b  __aeabi_ldiv0                                                             
00009165  __aeabi_lmul                                                              
0000698b  __aeabi_memclr                                                            
0000698b  __aeabi_memclr4                                                           
0000698b  __aeabi_memclr8                                                           
00005e03  __aeabi_memcpy                                                            
00005e03  __aeabi_memcpy4                                                           
00005e03  __aeabi_memcpy8                                                           
0000698d  __aeabi_memset                                                            
0000698d  __aeabi_memset4                                                           
0000698d  __aeabi_memset8                                                           
200026b8  __aeabi_stderr                                                            
200026b0  __aeabi_stdin                                                             
200026b4  __aeabi_stdout                                                            
00008cd5  __aeabi_ui2f                                                              
000082f1  __aeabi_uidiv                                                             
000082f1  __aeabi_uidivmod                                                          
00005f39  __aeabi_uldivmod                                                          
ffffffff  __binit__                                                                 
ffffffff  __c_args__                                                                
0001ffa8  __ccfg                                                                    
20004d00  __stack                                                                   
20000000  __start___llvm_prf_cnts                                                   
20000000  __stop___llvm_prf_cnts                                                    
0000911d  _args_main                                                                
00008161  _c_int00                                                                  
00009638  _ctypes_                                                                  
20002428  _device                                                                   
20002338  _ftable                                                                   
200026ec  _lock                                                                     
0000103b  _nop                                                                      
000093a5  _register_lock                                                            
000093b1  _register_unlock                                                          
200024a0  _stream                                                                   
200026f0  _unlock                                                                   
20002210  aRes                                                                      
200026c8  accelBias                                                                 
00001f75  accelgyrocalMPU9250                                                       
20002068  allMessages                                                               
20002668  ambientLight                                                              
00007db5  atoi                                                                      
ffffffff  binit                                                                     
200026fc  buttonConfig                                                              
00008465  buttonFxn                                                                 
20002704  buzzerConfig                                                              
20002190  calculationValues                                                         
20002670  charToUart                                                                
00007801  close                                                                     
00007e01  copy_in                                                                   
000093bd  copysign                                                                  
000093bd  copysignl                                                                 
00006575  countAverage                                                              
00003c05  countDeviation                                                            
00008c8d  delay                                                                     
20002220  driverlib_release_0_47020                                                 
20002780  errno                                                                     
000088f5  finddevice                                                                
00006601  fputc                                                                     
000048b5  fputs                                                                     
00008fc7  free                                                                      
0000785d  frexp                                                                     
0000785d  frexpl                                                                    
00007445  fseek                                                                     
20002214  gRes                                                                      
00007bd1  getAres                                                                   
00007c25  getGres                                                                   
000081a5  getdevice                                                                 
200026d4  gyroBias                                                                  
20002218  i2c                                                                       
0000998c  i2cCC26xxHWAttrs                                                          
20001d24  i2cCC26xxObjects                                                          
00005195  initMPU9250                                                               
00005795  ldexp                                                                     
00005795  ldexpl                                                                    
2000270c  ledConfig                                                                 
00008bf1  lseek                                                                     
0000314d  main                                                                      
20002784  main_func_sp                                                              
00008a15  malloc                                                                    
00008d89  memccpy                                                                   
00008e0d  memchr                                                                    
00005e03  memcpy                                                                    
00006993  memset                                                                    
00002445  morseReadTask                                                             
20000208  morseReadTaskStack                                                        
0000455d  mpu9250_get_data                                                          
000062b1  mpu9250_setup                                                             
20001608  mpuValues                                                                 
20002204  parmbuf                                                                   
00005aad  playMorseCode                                                             
000070a5  playSound                                                                 
0000103d  pow                                                                       
0000103d  powl                                                                      
000072b1  printf                                                                    
20002660  programState                                                              
20002678  programState2                                                             
00006601  putc                                                                      
00006895  readByte                                                                  
00008b21  remove                                                                    
000097a4  resourceDB                                                                
00005795  scalbn                                                                    
00005795  scalbnl                                                                   
00005441  setvbuf                                                                   
00008331  sprintf                                                                   
00003f29  sqrt                                                                      
00003f29  sqrtl                                                                     
20002674  startDataGathering                                                        
000091c5  strchr                                                                    
0000917d  strcmp                                                                    
000091db  strcpy                                                                    
00009259  strlen                                                                    
00008661  strncpy                                                                   
200001a4  ti_sysbios_BIOS_Module__state__V                                          
1001bc29  ti_sysbios_BIOS_RtsGateProxy_Handle__label__S                             
1001bc29  ti_sysbios_BIOS_RtsGateProxy_Handle__label__S__mangled__                  
1001bab9  ti_sysbios_BIOS_RtsGateProxy_Object__delete__S                            
1001bab9  ti_sysbios_BIOS_RtsGateProxy_Object__delete__S__mangled__                 
1001c179  ti_sysbios_BIOS_RtsGateProxy_Params__init__S                              
1001c179  ti_sysbios_BIOS_RtsGateProxy_Params__init__S__mangled__                   
1001c249  ti_sysbios_BIOS_RtsGateProxy_enter__E                                     
1001c24d  ti_sysbios_BIOS_RtsGateProxy_leave__E                                     
1001c275  ti_sysbios_BIOS_RtsGateProxy_query__E                                     
1001c275  ti_sysbios_BIOS_RtsGateProxy_query__E__mangled__                          
00008925  ti_sysbios_BIOS_atExitFunc__I                                             
000091f1  ti_sysbios_BIOS_exitFunc__I                                               
1001c035  ti_sysbios_BIOS_exit__E                                                   
1001bff9  ti_sysbios_BIOS_getCpuFreq__E                                             
00004dcb  ti_sysbios_BIOS_linkedWithIncorrectBootLibrary__E                         
000059ef  ti_sysbios_BIOS_nullFunc__I                                               
00008cf9  ti_sysbios_BIOS_registerRTSLock__I                                        
00008d1d  ti_sysbios_BIOS_removeRTSLock__I                                          
00008e2d  ti_sysbios_BIOS_rtsLock__I                                                
00009195  ti_sysbios_BIOS_rtsUnlock__I                                              
1001c045  ti_sysbios_BIOS_setThreadType__E                                          
00008955  ti_sysbios_BIOS_startFunc__I                                              
1001c055  ti_sysbios_BIOS_start__E                                                  
00005c1d  ti_sysbios_family_arm_cc26xx_Boot_trimDevice                              
00000502  ti_sysbios_family_arm_cc26xx_Timer_Module__id__C                          
1001bb49  ti_sysbios_family_arm_cc26xx_Timer_Module__startupDone__S                 
200001e4  ti_sysbios_family_arm_cc26xx_Timer_Module__state__V                       
1001ba71  ti_sysbios_family_arm_cc26xx_Timer_Module_startup__E                      
20002540  ti_sysbios_family_arm_cc26xx_Timer_Object__table__V                       
00008e4d  ti_sysbios_family_arm_cc26xx_Timer_dynamicStub__E                         
0000948d  ti_sysbios_family_arm_cc26xx_Timer_getCount64__E                          
000085b9  ti_sysbios_family_arm_cc26xx_Timer_getCurrentTick__E                      
1001c251  ti_sysbios_family_arm_cc26xx_Timer_getExpiredTicks__E                     
00008d41  ti_sysbios_family_arm_cc26xx_Timer_getMaxTicks__E                         
1001c255  ti_sysbios_family_arm_cc26xx_Timer_getPeriod__E                           
0000879d  ti_sysbios_family_arm_cc26xx_Timer_initDevice__I                          
1001a469  ti_sysbios_family_arm_cc26xx_Timer_periodicStub__E                        
1001b769  ti_sysbios_family_arm_cc26xx_Timer_postInit__I                            
000087d1  ti_sysbios_family_arm_cc26xx_Timer_setNextTick__E                         
1001c259  ti_sysbios_family_arm_cc26xx_Timer_setPeriod__E                           
00008985  ti_sysbios_family_arm_cc26xx_Timer_setThreshold__I                        
00006c51  ti_sysbios_family_arm_cc26xx_Timer_start__E                               
00000484  ti_sysbios_family_arm_cc26xx_Timer_startupNeeded__C                       
1001b795  ti_sysbios_family_arm_cc26xx_Timer_startup__E                             
200001ec  ti_sysbios_family_arm_cc26xx_TimestampProvider_Module__state__V           
1001bb69  ti_sysbios_family_arm_cc26xx_TimestampProvider_Module_startup__E          
00009359  ti_sysbios_family_arm_cc26xx_TimestampProvider_get32__E                   
1001b9d1  ti_sysbios_family_arm_cc26xx_TimestampProvider_get64__E                   
1001c12f  ti_sysbios_family_arm_cc26xx_TimestampProvider_getFreq__E                 
00000504  ti_sysbios_family_arm_cc26xx_TimestampProvider_useClockTimer__C           
00000488  ti_sysbios_family_arm_m3_Hwi_E_alreadyDefined__C                          
0000048c  ti_sysbios_family_arm_m3_Hwi_E_hwiLimitExceeded__C                        
1001aed1  ti_sysbios_family_arm_m3_Hwi_Instance_finalize__E                         
1001a3c9  ti_sysbios_family_arm_m3_Hwi_Instance_init__E                             
20002796  ti_sysbios_family_arm_m3_Hwi_Module_State_0_excActive__A                  
20002788  ti_sysbios_family_arm_m3_Hwi_Module_State_0_excContext__A                 
2000278c  ti_sysbios_family_arm_m3_Hwi_Module_State_0_excStack__A                   
00000506  ti_sysbios_family_arm_m3_Hwi_Module__id__C                                
20002714  ti_sysbios_family_arm_m3_Hwi_Module__root__V                              
1001bb89  ti_sysbios_family_arm_m3_Hwi_Module__startupDone__S                       
20000144  ti_sysbios_family_arm_m3_Hwi_Module__state__V                             
1001b1c1  ti_sysbios_family_arm_m3_Hwi_Module_startup__E                            
00000490  ti_sysbios_family_arm_m3_Hwi_NUM_INTERRUPTS__C                            
000002d0  ti_sysbios_family_arm_m3_Hwi_Object__DESC__C                              
00000170  ti_sysbios_family_arm_m3_Hwi_Object__PARAMS__C                            
00000494  ti_sysbios_family_arm_m3_Hwi_Object__count__C                             
1001aab1  ti_sysbios_family_arm_m3_Hwi_Object__create__S                            
1001bba9  ti_sysbios_family_arm_m3_Hwi_Object__delete__S                            
1001be69  ti_sysbios_family_arm_m3_Hwi_Object__destruct__S                          
1001b7c1  ti_sysbios_family_arm_m3_Hwi_Object__get__S                               
00000498  ti_sysbios_family_arm_m3_Hwi_Object__table__C                             
2000267c  ti_sysbios_family_arm_m3_Hwi_Object__table__V                             
1001c13d  ti_sysbios_family_arm_m3_Hwi_Params__init__S                              
0000049c  ti_sysbios_family_arm_m3_Hwi_ccr__C                                       
1001af29  ti_sysbios_family_arm_m3_Hwi_construct                                    
1001ab15  ti_sysbios_family_arm_m3_Hwi_create                                       
1001c25d  ti_sysbios_family_arm_m3_Hwi_delete                                       
1001c261  ti_sysbios_family_arm_m3_Hwi_destruct                                     
1001c149  ti_sysbios_family_arm_m3_Hwi_disableFxn__E                                
1001b299  ti_sysbios_family_arm_m3_Hwi_disableInterrupt__E                          
1001aa49  ti_sysbios_family_arm_m3_Hwi_dispatchC__I                                 
20001e04  ti_sysbios_family_arm_m3_Hwi_dispatchTable                                
1001c89d  ti_sysbios_family_arm_m3_Hwi_dispatch__I                                  
1001c1fb  ti_sysbios_family_arm_m3_Hwi_doSwiRestore__I                              
1001c213  ti_sysbios_family_arm_m3_Hwi_doTaskRestore__I                             
1001c155  ti_sysbios_family_arm_m3_Hwi_enableFxn__E                                 
1001b2dd  ti_sysbios_family_arm_m3_Hwi_enableInterrupt__E                           
1001ca01  ti_sysbios_family_arm_m3_Hwi_excHandlerAsm__I                             
000004a0  ti_sysbios_family_arm_m3_Hwi_excHandlerFunc__C                            
1001bbc9  ti_sysbios_family_arm_m3_Hwi_excHandler__I                                
1001b465  ti_sysbios_family_arm_m3_Hwi_getStackInfo__E                              
1001a699  ti_sysbios_family_arm_m3_Hwi_initNVIC__E                                  
1001c9b9  ti_sysbios_family_arm_m3_Hwi_initStacks__E                                
000004a4  ti_sysbios_family_arm_m3_Hwi_nullIsrFunc__C                               
000004a8  ti_sysbios_family_arm_m3_Hwi_numSparseInterrupts__C                       
e000e000  ti_sysbios_family_arm_m3_Hwi_nvic                                         
1001ca3f  ti_sysbios_family_arm_m3_Hwi_pendSV__I                                    
1001c065  ti_sysbios_family_arm_m3_Hwi_plug__E                                      
1001a319  ti_sysbios_family_arm_m3_Hwi_postInit__I                                  
000004ac  ti_sysbios_family_arm_m3_Hwi_priGroup__C                                  
20000000  ti_sysbios_family_arm_m3_Hwi_ramVectors                                   
00000000  ti_sysbios_family_arm_m3_Hwi_resetVectors                                 
1001c219  ti_sysbios_family_arm_m3_Hwi_restoreFxn__E                                
1001ca57  ti_sysbios_family_arm_m3_Hwi_return                                       
1001be85  ti_sysbios_family_arm_m3_Hwi_setPriority__E                               
1001c203  ti_sysbios_family_arm_m3_Hwi_startup__E                                   
1001c00d  ti_sysbios_family_arm_m3_Hwi_switchFromBootStack__E                       
1001c265  ti_sysbios_family_arm_m3_TaskSupport_Module__startupDone__S               
1001c96d  ti_sysbios_family_arm_m3_TaskSupport_buildTaskStack                       
1001c161  ti_sysbios_family_arm_m3_TaskSupport_getStackAlignment__E                 
1001ca59  ti_sysbios_family_arm_m3_TaskSupport_glue                                 
000004b0  ti_sysbios_family_arm_m3_TaskSupport_stackAlignment__C                    
1001b49d  ti_sysbios_family_arm_m3_TaskSupport_start__E                             
1001ca69  ti_sysbios_family_arm_m3_TaskSupport_swap__E                              
1001ca21  ti_sysbios_family_xxx_Hwi_switchAndRunFunc                                
1001bbe9  ti_sysbios_gates_GateHwi_Handle__label__S                                 
1001b463  ti_sysbios_gates_GateHwi_Instance_init__E                                 
0000021c  ti_sysbios_gates_GateHwi_Module__FXNS__C                                  
00000508  ti_sysbios_gates_GateHwi_Module__id__C                                    
2000271c  ti_sysbios_gates_GateHwi_Module__root__V                                  
000002f0  ti_sysbios_gates_GateHwi_Object__DESC__C                                  
00000430  ti_sysbios_gates_GateHwi_Object__PARAMS__C                                
1001ba95  ti_sysbios_gates_GateHwi_Object__create__S                                
1001bc09  ti_sysbios_gates_GateHwi_Object__delete__S                                
1001c16d  ti_sysbios_gates_GateHwi_enter__E                                         
1001c21f  ti_sysbios_gates_GateHwi_leave__E                                         
1001c269  ti_sysbios_gates_GateHwi_query__E                                         
1001bc29  ti_sysbios_gates_GateMutex_Handle__label__S                               
000005cc  ti_sysbios_gates_GateMutex_Instance_State_sem__O                          
1001c075  ti_sysbios_gates_GateMutex_Instance_finalize__E                           
1001bea1  ti_sysbios_gates_GateMutex_Instance_init__E                               
00000240  ti_sysbios_gates_GateMutex_Module__FXNS__C                                
0000050a  ti_sysbios_gates_GateMutex_Module__id__C                                  
20002724  ti_sysbios_gates_GateMutex_Module__root__V                                
00000310  ti_sysbios_gates_GateMutex_Object__DESC__C                                
00000448  ti_sysbios_gates_GateMutex_Object__PARAMS__C                              
1001b649  ti_sysbios_gates_GateMutex_Object__create__S                              
1001bab9  ti_sysbios_gates_GateMutex_Object__delete__S                              
1001bc49  ti_sysbios_gates_GateMutex_Object__destruct__S                            
20002588  ti_sysbios_gates_GateMutex_Object__table__V                               
1001c179  ti_sysbios_gates_GateMutex_Params__init__S                                
1001b7ed  ti_sysbios_gates_GateMutex_construct                                      
1001b679  ti_sysbios_gates_GateMutex_create                                         
1001c26d  ti_sysbios_gates_GateMutex_delete                                         
1001c271  ti_sysbios_gates_GateMutex_destruct                                       
1001b6a9  ti_sysbios_gates_GateMutex_enter__E                                       
1001bf9d  ti_sysbios_gates_GateMutex_leave__E                                       
1001c275  ti_sysbios_gates_GateMutex_query__E                                       
1001c279  ti_sysbios_hal_Hwi_HwiProxy_Module__startupDone__S                        
1001bb89  ti_sysbios_hal_Hwi_HwiProxy_Module__startupDone__S__mangled__             
1001c085  ti_sysbios_hal_Hwi_HwiProxy_Object__create__S                             
1001bba9  ti_sysbios_hal_Hwi_HwiProxy_Object__delete__S                             
1001bba9  ti_sysbios_hal_Hwi_HwiProxy_Object__delete__S__mangled__                  
1001c13d  ti_sysbios_hal_Hwi_HwiProxy_Params__init__S                               
1001c13d  ti_sysbios_hal_Hwi_HwiProxy_Params__init__S__mangled__                    
1001be49  ti_sysbios_hal_Hwi_HwiProxy_create                                        
1001c27d  ti_sysbios_hal_Hwi_HwiProxy_delete                                        
1001c281  ti_sysbios_hal_Hwi_HwiProxy_disableInterrupt__E                           
1001b299  ti_sysbios_hal_Hwi_HwiProxy_disableInterrupt__E__mangled__                
1001c285  ti_sysbios_hal_Hwi_HwiProxy_enableInterrupt__E                            
1001b2dd  ti_sysbios_hal_Hwi_HwiProxy_enableInterrupt__E__mangled__                 
1001c289  ti_sysbios_hal_Hwi_HwiProxy_getStackInfo__E                               
1001b465  ti_sysbios_hal_Hwi_HwiProxy_getStackInfo__E__mangled__                    
1001c28d  ti_sysbios_hal_Hwi_HwiProxy_startup__E                                    
1001c203  ti_sysbios_hal_Hwi_HwiProxy_startup__E__mangled__                         
1001c291  ti_sysbios_hal_Hwi_HwiProxy_switchFromBootStack__E                        
1001c00d  ti_sysbios_hal_Hwi_HwiProxy_switchFromBootStack__E__mangled__             
1001c1f1  ti_sysbios_hal_Hwi_Instance_finalize__E                                   
1001b9f9  ti_sysbios_hal_Hwi_Instance_init__E                                       
2000272c  ti_sysbios_hal_Hwi_Module__root__V                                        
1001c021  ti_sysbios_hal_Hwi_Module_startup__E                                      
00000330  ti_sysbios_hal_Hwi_Object__DESC__C                                        
000001a0  ti_sysbios_hal_Hwi_Object__PARAMS__C                                      
1001bc69  ti_sysbios_hal_Hwi_Object__delete__S                                      
1001ab79  ti_sysbios_hal_Hwi_create                                                 
1001c295  ti_sysbios_hal_Hwi_delete                                                 
1001c281  ti_sysbios_hal_Hwi_disableInterrupt__E                                    
1001c281  ti_sysbios_hal_Hwi_disableInterrupt__E                                    
1001c285  ti_sysbios_hal_Hwi_enableInterrupt__E                                     
1001c285  ti_sysbios_hal_Hwi_enableInterrupt__E                                     
1001c289  ti_sysbios_hal_Hwi_getStackInfo__E                                        
1001c289  ti_sysbios_hal_Hwi_getStackInfo__E                                        
1001b819  ti_sysbios_hal_Hwi_initStack                                              
1001c28d  ti_sysbios_hal_Hwi_startup__E                                             
1001c28d  ti_sysbios_hal_Hwi_startup__E                                             
1001c299  ti_sysbios_hal_Hwi_switchFromBootStack__E                                 
1001c299  ti_sysbios_hal_Hwi_switchFromBootStack__E                                 
000004b4  ti_sysbios_heaps_HeapMem_E_memory__C                                      
1001bc89  ti_sysbios_heaps_HeapMem_Handle__label__S                                 
20001208  ti_sysbios_heaps_HeapMem_Instance_State_0_buf__A                          
1001b4d5  ti_sysbios_heaps_HeapMem_Instance_init__E                                 
1001bc29  ti_sysbios_heaps_HeapMem_Module_GateProxy_Handle__label__S                
1001bc29  ti_sysbios_heaps_HeapMem_Module_GateProxy_Handle__label__S__mangled__     
1001bab9  ti_sysbios_heaps_HeapMem_Module_GateProxy_Object__delete__S               
1001bab9  ti_sysbios_heaps_HeapMem_Module_GateProxy_Object__delete__S__mangled__    
1001c179  ti_sysbios_heaps_HeapMem_Module_GateProxy_Params__init__S                 
1001c179  ti_sysbios_heaps_HeapMem_Module_GateProxy_Params__init__S__mangled__      
1001c29d  ti_sysbios_heaps_HeapMem_Module_GateProxy_enter__E                        
1001c2a1  ti_sysbios_heaps_HeapMem_Module_GateProxy_leave__E                        
1001c275  ti_sysbios_heaps_HeapMem_Module_GateProxy_query__E                        
1001c275  ti_sysbios_heaps_HeapMem_Module_GateProxy_query__E__mangled__             
000001cc  ti_sysbios_heaps_HeapMem_Module__FXNS__C                                  
000004b8  ti_sysbios_heaps_HeapMem_Module__gateObj__C                               
0000050c  ti_sysbios_heaps_HeapMem_Module__id__C                                    
20002734  ti_sysbios_heaps_HeapMem_Module__root__V                                  
00000350  ti_sysbios_heaps_HeapMem_Object__DESC__C                                  
00000264  ti_sysbios_heaps_HeapMem_Object__PARAMS__C                                
000004bc  ti_sysbios_heaps_HeapMem_Object__count__C                                 
1001b845  ti_sysbios_heaps_HeapMem_Object__create__S                                
1001bca9  ti_sysbios_heaps_HeapMem_Object__delete__S                                
1001b871  ti_sysbios_heaps_HeapMem_Object__get__S                                   
000004c0  ti_sysbios_heaps_HeapMem_Object__table__C                                 
20002694  ti_sysbios_heaps_HeapMem_Object__table__V                                 
1001a199  ti_sysbios_heaps_HeapMem_alloc__E                                         
1001a795  ti_sysbios_heaps_HeapMem_free__E                                          
1001b209  ti_sysbios_heaps_HeapMem_getStats__E                                      
1001b545  ti_sysbios_heaps_HeapMem_init__I                                          
1001c2a5  ti_sysbios_heaps_HeapMem_isBlocking__E                                    
000004c4  ti_sysbios_heaps_HeapMem_reqAlign__C                                      
1001c105  ti_sysbios_heaps_HeapMem_restore__E                                       
1001bfcd  ti_sysbios_knl_Clock_Instance_finalize__E                                 
1001b50d  ti_sysbios_knl_Clock_Instance_init__E                                     
000005d0  ti_sysbios_knl_Clock_Module_State_clockQ__O                               
2000273c  ti_sysbios_knl_Clock_Module__root__V                                      
20000178  ti_sysbios_knl_Clock_Module__state__V                                     
1001bcc9  ti_sysbios_knl_Clock_Module_startup__E                                    
00000370  ti_sysbios_knl_Clock_Object__DESC__C                                      
00000288  ti_sysbios_knl_Clock_Object__PARAMS__C                                    
1001badd  ti_sysbios_knl_Clock_Object__delete__S                                    
1001bce9  ti_sysbios_knl_Clock_Object__destruct__S                                  
20002620  ti_sysbios_knl_Clock_Object__table__V                                     
1001c185  ti_sysbios_knl_Clock_Params__init__S                                      
1001c2a9  ti_sysbios_knl_Clock_TimerProxy_Module__startupDone__S                    
1001bb49  ti_sysbios_knl_Clock_TimerProxy_Module__startupDone__S__mangled__         
1001c095  ti_sysbios_knl_Clock_TimerProxy_getCurrentTick__E                         
1001c2ad  ti_sysbios_knl_Clock_TimerProxy_getExpiredTicks__E                        
1001c0a5  ti_sysbios_knl_Clock_TimerProxy_getMaxTicks__E                            
1001c2b1  ti_sysbios_knl_Clock_TimerProxy_getPeriod__E                              
1001c0b5  ti_sysbios_knl_Clock_TimerProxy_setNextTick__E                            
1001b795  ti_sysbios_knl_Clock_TimerProxy_startup__E                                
1001b795  ti_sysbios_knl_Clock_TimerProxy_startup__E__mangled__                     
1001ba21  ti_sysbios_knl_Clock_addI__E                                              
1001b579  ti_sysbios_knl_Clock_construct                                            
1001b3ed  ti_sysbios_knl_Clock_create                                               
1001c2b5  ti_sysbios_knl_Clock_delete                                               
1001c2b9  ti_sysbios_knl_Clock_destruct                                             
0000926d  ti_sysbios_knl_Clock_doTick__I                                            
00008af5  ti_sysbios_knl_Clock_getTicksUntilInterrupt__E                            
1001b6d9  ti_sysbios_knl_Clock_getTicks__E                                          
1001c191  ti_sysbios_knl_Clock_getTimerHandle__E                                    
1001be67  ti_sysbios_knl_Clock_logTick__E                                           
1001c2bd  ti_sysbios_knl_Clock_removeI__E                                           
1001bebd  ti_sysbios_knl_Clock_scheduleNextTick__E                                  
000004c8  ti_sysbios_knl_Clock_serviceMargin__C                                     
1001c2c1  ti_sysbios_knl_Clock_setTimeout__E                                        
1001a719  ti_sysbios_knl_Clock_startI__E                                            
1001bfe3  ti_sysbios_knl_Clock_start__E                                             
00008e6d  ti_sysbios_knl_Clock_stop__E                                              
00000510  ti_sysbios_knl_Clock_tickMode__C                                          
000099ec  ti_sysbios_knl_Clock_tickPeriod__C                                        
000099f0  ti_sysbios_knl_Clock_triggerClock__C                                      
00005c1b  ti_sysbios_knl_Clock_triggerFunc__I                                       
1001a80d  ti_sysbios_knl_Clock_walkQueueDynamic__E                                  
00005ea1  ti_sysbios_knl_Clock_workFuncDynamic__E                                   
1001a885  ti_sysbios_knl_Clock_workFunc__E                                          
000099f4  ti_sysbios_knl_Idle_funcList__A                                           
00000478  ti_sysbios_knl_Idle_funcList__C                                           
1001c20b  ti_sysbios_knl_Idle_loop__E                                               
1001bd09  ti_sysbios_knl_Idle_run__E                                                
000005d4  ti_sysbios_knl_Mailbox_Instance_State_dataQue__O                          
000005d8  ti_sysbios_knl_Mailbox_Instance_State_dataSem__O                          
000005dc  ti_sysbios_knl_Mailbox_Instance_State_freeQue__O                          
000005e0  ti_sysbios_knl_Mailbox_Instance_State_freeSem__O                          
1001a9dd  ti_sysbios_knl_Mailbox_Instance_finalize__E                               
1001a001  ti_sysbios_knl_Mailbox_Instance_init__E                                   
20002744  ti_sysbios_knl_Mailbox_Module__root__V                                    
1001b251  ti_sysbios_knl_Mailbox_Module_startup__E                                  
00000390  ti_sysbios_knl_Mailbox_Object__DESC__C                                    
0000013c  ti_sysbios_knl_Mailbox_Object__PARAMS__C                                  
000004cc  ti_sysbios_knl_Mailbox_Object__count__C                                   
1001bd29  ti_sysbios_knl_Mailbox_Object__delete__S                                  
1001bed9  ti_sysbios_knl_Mailbox_Object__destruct__S                                
1001b89d  ti_sysbios_knl_Mailbox_Object__get__S                                     
000004d0  ti_sysbios_knl_Mailbox_Object__table__C                                   
1001c19d  ti_sysbios_knl_Mailbox_Params__init__S                                    
1001af81  ti_sysbios_knl_Mailbox_construct                                          
1001abdd  ti_sysbios_knl_Mailbox_create                                             
1001c2c5  ti_sysbios_knl_Mailbox_delete                                             
1001c2c9  ti_sysbios_knl_Mailbox_destruct                                           
1001a8fd  ti_sysbios_knl_Mailbox_pend__E                                            
1001b8c9  ti_sysbios_knl_Mailbox_postInit__I                                        
1001a591  ti_sysbios_knl_Mailbox_post__E                                            
1001c22b  ti_sysbios_knl_Queue_Instance_init__E                                     
2000274c  ti_sysbios_knl_Queue_Module__root__V                                      
000003b0  ti_sysbios_knl_Queue_Object__DESC__C                                      
00000460  ti_sysbios_knl_Queue_Object__PARAMS__C                                    
000004d4  ti_sysbios_knl_Queue_Object__count__C                                     
1001bd49  ti_sysbios_knl_Queue_Object__delete__S                                    
1001bef5  ti_sysbios_knl_Queue_Object__destruct__S                                  
1001bd69  ti_sysbios_knl_Queue_Object__get__S                                       
000004d8  ti_sysbios_knl_Queue_Object__table__C                                     
1001b8f5  ti_sysbios_knl_Queue_construct                                            
1001b921  ti_sysbios_knl_Queue_create                                               
1001c2cd  ti_sysbios_knl_Queue_delete                                               
1001c1a9  ti_sysbios_knl_Queue_dequeue__E                                           
1001c2d1  ti_sysbios_knl_Queue_destruct                                             
1001c231  ti_sysbios_knl_Queue_elemClear__E                                         
1001c113  ti_sysbios_knl_Queue_empty__E                                             
1001c1b5  ti_sysbios_knl_Queue_enqueue__E                                           
1001bf11  ti_sysbios_knl_Queue_get__E                                               
1001c2d5  ti_sysbios_knl_Queue_head__E                                              
1001c2d9  ti_sysbios_knl_Queue_next__E                                              
1001bf2d  ti_sysbios_knl_Queue_put__E                                               
1001c121  ti_sysbios_knl_Queue_remove__E                                            
000005e4  ti_sysbios_knl_Semaphore_Instance_State_pendQ__O                          
1001c0c5  ti_sysbios_knl_Semaphore_Instance_finalize__E                             
1001bb01  ti_sysbios_knl_Semaphore_Instance_init__E                                 
20002754  ti_sysbios_knl_Semaphore_Module__root__V                                  
000003d0  ti_sysbios_knl_Semaphore_Object__DESC__C                                  
000002ac  ti_sysbios_knl_Semaphore_Object__PARAMS__C                                
1001bb25  ti_sysbios_knl_Semaphore_Object__delete__S                                
1001bd89  ti_sysbios_knl_Semaphore_Object__destruct__S                              
1001c1c1  ti_sysbios_knl_Semaphore_Params__init__S                                  
1001b709  ti_sysbios_knl_Semaphore_construct                                        
1001b5ad  ti_sysbios_knl_Semaphore_create                                           
1001c2dd  ti_sysbios_knl_Semaphore_delete                                           
1001c2e1  ti_sysbios_knl_Semaphore_destruct                                         
1001b94d  ti_sysbios_knl_Semaphore_pendTimeout__I                                   
1001a0cd  ti_sysbios_knl_Semaphore_pend__E                                          
1001ac41  ti_sysbios_knl_Semaphore_post__E                                          
1001bf9b  ti_sysbios_knl_Swi_Instance_finalize__E                                   
1001aca5  ti_sysbios_knl_Swi_Instance_init__E                                       
200025c0  ti_sysbios_knl_Swi_Module_State_0_readyQ__A                               
2000275c  ti_sysbios_knl_Swi_Module__root__V                                        
200001c8  ti_sysbios_knl_Swi_Module__state__V                                       
1001c237  ti_sysbios_knl_Swi_Module_startup__E                                      
000003f0  ti_sysbios_knl_Swi_Object__DESC__C                                        
000001f4  ti_sysbios_knl_Swi_Object__PARAMS__C                                      
000004dc  ti_sysbios_knl_Swi_Object__count__C                                       
1001bda9  ti_sysbios_knl_Swi_Object__delete__S                                      
1001bf49  ti_sysbios_knl_Swi_Object__destruct__S                                    
1001b979  ti_sysbios_knl_Swi_Object__get__S                                         
000004e0  ti_sysbios_knl_Swi_Object__table__C                                       
200025f0  ti_sysbios_knl_Swi_Object__table__V                                       
1001c1cd  ti_sysbios_knl_Swi_Params__init__S                                        
1001b085  ti_sysbios_knl_Swi_construct                                              
1001ad05  ti_sysbios_knl_Swi_create                                                 
1001c2e5  ti_sysbios_knl_Swi_delete                                                 
1001c2e9  ti_sysbios_knl_Swi_destruct                                               
1001c0d5  ti_sysbios_knl_Swi_disable__E                                             
1001c0e5  ti_sysbios_knl_Swi_enabled__E                                             
000093d5  ti_sysbios_knl_Swi_getTrigger__E                                          
000004e4  ti_sysbios_knl_Swi_numPriorities__C                                       
000091ad  ti_sysbios_knl_Swi_or__E                                                  
1001c2ed  ti_sysbios_knl_Swi_postInit__I                                            
1001b321  ti_sysbios_knl_Swi_post__E                                                
1001ad61  ti_sysbios_knl_Swi_restoreHwi__E                                          
1001b5e1  ti_sysbios_knl_Swi_restore__E                                             
1001b0d5  ti_sysbios_knl_Swi_runLoop__I                                             
1001afd9  ti_sysbios_knl_Swi_run__I                                                 
1001b031  ti_sysbios_knl_Swi_schedule__I                                            
1001c23d  ti_sysbios_knl_Swi_startup__E                                             
200018d8  ti_sysbios_knl_Task_Instance_State_0_stack__A                             
1001a4fd  ti_sysbios_knl_Task_Instance_finalize__E                                  
1001a25d  ti_sysbios_knl_Task_Instance_init__E                                      
20002790  ti_sysbios_knl_Task_Module_State_0_idleTask__A                            
20002640  ti_sysbios_knl_Task_Module_State_0_readyQ__A                              
000005e8  ti_sysbios_knl_Task_Module_State_inactiveQ__O                             
20002764  ti_sysbios_knl_Task_Module__root__V                                       
20000100  ti_sysbios_knl_Task_Module__state__V                                      
1001adbd  ti_sysbios_knl_Task_Module_startup__E                                     
00000410  ti_sysbios_knl_Task_Object__DESC__C                                       
00000100  ti_sysbios_knl_Task_Object__PARAMS__C                                     
000004e8  ti_sysbios_knl_Task_Object__count__C                                      
1001bdc9  ti_sysbios_knl_Task_Object__delete__S                                     
1001bf65  ti_sysbios_knl_Task_Object__destruct__S                                   
1001bde9  ti_sysbios_knl_Task_Object__get__S                                        
000004ec  ti_sysbios_knl_Task_Object__table__C                                      
200024f0  ti_sysbios_knl_Task_Object__table__V                                      
1001c1d9  ti_sysbios_knl_Task_Params__init__S                                       
1001c2f1  ti_sysbios_knl_Task_SupportProxy_Module__startupDone__S                   
1001c265  ti_sysbios_knl_Task_SupportProxy_Module__startupDone__S__mangled__        
1001c2f5  ti_sysbios_knl_Task_SupportProxy_getStackAlignment__E                     
1001c161  ti_sysbios_knl_Task_SupportProxy_getStackAlignment__E__mangled__          
1001c2f9  ti_sysbios_knl_Task_SupportProxy_start__E                                 
1001b49d  ti_sysbios_knl_Task_SupportProxy_start__E__mangled__                      
1001c2fd  ti_sysbios_knl_Task_SupportProxy_swap__E                                  
1001ca69  ti_sysbios_knl_Task_SupportProxy_swap__E__mangled__                       
000004f0  ti_sysbios_knl_Task_allBlockedFunc__C                                     
1001b365  ti_sysbios_knl_Task_allBlockedFunction__I                                 
1001b615  ti_sysbios_knl_Task_blockI__E                                             
1001b125  ti_sysbios_knl_Task_construct                                             
1001ae19  ti_sysbios_knl_Task_create                                                
000004f4  ti_sysbios_knl_Task_defaultStackHeap__C                                   
000004f8  ti_sysbios_knl_Task_defaultStackSize__C                                   
1001c301  ti_sysbios_knl_Task_delete                                                
1001c305  ti_sysbios_knl_Task_destruct                                              
1001c0f5  ti_sysbios_knl_Task_disable__E                                            
1001c243  ti_sysbios_knl_Task_enable__E                                             
1001be09  ti_sysbios_knl_Task_enter__I                                              
1001b429  ti_sysbios_knl_Task_exit__E                                               
0000050e  ti_sysbios_knl_Task_initStackFlag__C                                      
000004fc  ti_sysbios_knl_Task_numConstructedTasks__C                                
1001a615  ti_sysbios_knl_Task_postInit__I                                           
1001b739  ti_sysbios_knl_Task_processVitalTaskFlag__I                               
1001be29  ti_sysbios_knl_Task_restoreHwi__E                                         
1001ba49  ti_sysbios_knl_Task_restore__E                                            
1001b175  ti_sysbios_knl_Task_schedule__I                                           
1001c1e5  ti_sysbios_knl_Task_self__E                                               
1001bf81  ti_sysbios_knl_Task_sleepTimeout__I                                       
1001a96d  ti_sysbios_knl_Task_sleep__E                                              
1001ae75  ti_sysbios_knl_Task_startCore__E                                          
1001c309  ti_sysbios_knl_Task_startup__E                                            
1001ca71  ti_sysbios_knl_Task_swapReturn                                            
1001b9a5  ti_sysbios_knl_Task_unblockI__E                                           
1001bfb5  ti_sysbios_knl_Task_unblock__E                                            
1001b3a9  ti_sysbios_knl_Task_yield__E                                              
00000590  ti_sysbios_rom_ROM_AONRTCChannelEnable                                    
00000594  ti_sysbios_rom_ROM_AONRTCCompareValueSet                                  
00000598  ti_sysbios_rom_ROM_AONRTCCurrentCompareValueGet                           
0000059c  ti_sysbios_rom_ROM_AONRTCEventClear                                       
000005a0  ti_sysbios_rom_ROM_ti_sysbios_family_arm_cc26xx_Timer_getCount64__E       
000005a4  ti_sysbios_rom_ROM_ti_sysbios_family_arm_cc26xx_Timer_getCurrentTick__E   
000005a8  ti_sysbios_rom_ROM_ti_sysbios_family_arm_cc26xx_Timer_getMaxTicks__E      
000005ac  ti_sysbios_rom_ROM_ti_sysbios_family_arm_cc26xx_Timer_initDevice__I       
000005b0  ti_sysbios_rom_ROM_ti_sysbios_family_arm_cc26xx_Timer_setNextTick__E      
000005b4  ti_sysbios_rom_ROM_ti_sysbios_family_arm_cc26xx_Timer_setThreshold__I     
000005b8  ti_sysbios_rom_ROM_ti_sysbios_family_arm_cc26xx_Timer_start__E            
000005bc  ti_sysbios_rom_ROM_ti_sysbios_family_arm_cc26xx_TimestampProvider_get32__E
000005c0  ti_sysbios_rom_ROM_xdc_runtime_Startup_getState__I                        
000005c4  ti_sysbios_rom_ROM_xdc_runtime_System_SupportProxy_abort__E               
000005c8  ti_sysbios_rom_ROM_xdc_runtime_System_SupportProxy_exit__E                
1001ca9b  ti_sysbios_rom_cortexm_cc26xx_CC26xx_getRevision__E                       
0000993c  uartCC26XXHWAttrs                                                         
20001ad8  uartCC26XXObjects                                                         
20002120  uartCC26XXRingBuffer                                                      
00009281  uartFxn                                                                   
00004fbd  uartTaskFxn                                                               
20000a08  uartTaskStack                                                             
00008b21  unlink                                                                    
000092a7  wcslen                                                                    
00008c19  write                                                                     
00006799  writeByte                                                                 
00000524  xdc_runtime_Assert_E_assertFailed__C                                      
1001c5a9  xdc_runtime_Assert_raise__I                                               
1001c6ed  xdc_runtime_Core_assignLabel__I                                           
1001c5f1  xdc_runtime_Core_assignParams__I                                          
1001c639  xdc_runtime_Core_constructObject__I                                       
1001c405  xdc_runtime_Core_createObject__I                                          
1001c4f9  xdc_runtime_Core_deleteObject__I                                          
1001c7a1  xdc_runtime_Core_destructObject__I                                        
00000528  xdc_runtime_Error_E_memory__C                                             
1001c7b9  xdc_runtime_Error_check__E                                                
1001c841  xdc_runtime_Error_init__E                                                 
0000052c  xdc_runtime_Error_policyFxn__C                                            
1001c487  xdc_runtime_Error_policySpin__E                                           
0000058c  xdc_runtime_Error_policy__C                                               
1001c769  xdc_runtime_Error_raiseX__E                                               
1001c885  xdc_runtime_Gate_enterSystem__E                                           
1001c879  xdc_runtime_Gate_leaveSystem__E                                           
00000530  xdc_runtime_IGateProvider_Interface__BASE__C                              
00000534  xdc_runtime_IHeap_Interface__BASE__C                                      
00000538  xdc_runtime_IModule_Interface__BASE__C                                    
1001bbe9  xdc_runtime_Main_Module_GateProxy_Handle__label__S                        
1001bc09  xdc_runtime_Main_Module_GateProxy_Object__delete__S                       
1001c269  xdc_runtime_Main_Module_GateProxy_query__E                                
0000053c  xdc_runtime_Main_Module__diagsEnabled__C                                  
00000540  xdc_runtime_Main_Module__diagsIncluded__C                                 
00000544  xdc_runtime_Main_Module__diagsMask__C                                     
00000584  xdc_runtime_Main_Module__id__C                                            
1001bc89  xdc_runtime_Memory_HeapProxy_Handle__label__S                             
1001bc89  xdc_runtime_Memory_HeapProxy_Handle__label__S__mangled__                  
1001bca9  xdc_runtime_Memory_HeapProxy_Object__delete__S                            
1001bca9  xdc_runtime_Memory_HeapProxy_Object__delete__S__mangled__                 
1001c889  xdc_runtime_Memory_HeapProxy_alloc__E                                     
1001c88d  xdc_runtime_Memory_HeapProxy_free__E                                      
00000586  xdc_runtime_Memory_Module__id__C                                          
20000200  xdc_runtime_Memory_Module__state__V                                       
1001c489  xdc_runtime_Memory_alloc__E                                               
1001c84d  xdc_runtime_Memory_calloc__E                                              
00000548  xdc_runtime_Memory_defaultHeapInstance__C                                 
1001c801  xdc_runtime_Memory_free__E                                                
1001c859  xdc_runtime_Memory_getMaxDefaultTypeAlign__E                              
1001c785  xdc_runtime_Memory_valloc__E                                              
2000276c  xdc_runtime_Registry_Module__state__V                                     
00008f75  xdc_runtime_Registry_findById__E                                          
200001f0  xdc_runtime_Startup_Module__state__V                                      
00000001  xdc_runtime_Startup__EXECFXN__C                                           
00000001  xdc_runtime_Startup__RESETFXN__C                                          
0000054c  xdc_runtime_Startup_execImpl__C                                           
1001c559  xdc_runtime_Startup_exec__E                                               
000092b9  xdc_runtime_Startup_exec__I                                               
000099d8  xdc_runtime_Startup_firstFxns__A                                          
00000514  xdc_runtime_Startup_firstFxns__C                                          
000078b9  xdc_runtime_Startup_getState__I                                           
0000051c  xdc_runtime_Startup_lastFxns__C                                           
00000550  xdc_runtime_Startup_maxPasses__C                                          
00009491  xdc_runtime_Startup_reset__I                                              
000093e1  xdc_runtime_Startup_rtsDone__E                                            
000099a4  xdc_runtime_Startup_sfxnRts__A                                            
00000554  xdc_runtime_Startup_sfxnRts__C                                            
000098d0  xdc_runtime_Startup_sfxnTab__A                                            
00000558  xdc_runtime_Startup_sfxnTab__C                                            
0000055c  xdc_runtime_Startup_startModsFxn__C                                       
1001c30d  xdc_runtime_Startup_startMods__I                                          
00000560  xdc_runtime_SysCallback_abortFxn__C                                       
1001c811  xdc_runtime_SysCallback_abort__E                                          
00005e9f  xdc_runtime_SysCallback_defaultAbort                                      
00005fcf  xdc_runtime_SysCallback_defaultExit                                       
00000564  xdc_runtime_SysCallback_exitFxn__C                                        
1001c821  xdc_runtime_SysCallback_exit__E                                           
20001f6c  xdc_runtime_SysMin_Module_State_0_outbuf__A                               
200026e0  xdc_runtime_SysMin_Module__state__V                                       
00008e8d  xdc_runtime_SysMin_Module_startup__E                                      
000089b5  xdc_runtime_SysMin_abort__E                                               
000099f8  xdc_runtime_SysMin_bufSize__C                                             
00008f91  xdc_runtime_SysMin_exit__E                                                
00009a08  xdc_runtime_SysMin_flushAtExit__C                                         
000081e9  xdc_runtime_SysMin_flush__E                                               
000099fc  xdc_runtime_SysMin_outputFunc__C                                          
00008dab  xdc_runtime_SysMin_output__I                                              
00008629  xdc_runtime_SysMin_putch__E                                               
0000931d  xdc_runtime_SysMin_ready__E                                               
1001bbe9  xdc_runtime_System_Module_GateProxy_Handle__label__S                      
1001bbe9  xdc_runtime_System_Module_GateProxy_Handle__label__S__mangled__           
1001bc09  xdc_runtime_System_Module_GateProxy_Object__delete__S                     
1001bc09  xdc_runtime_System_Module_GateProxy_Object__delete__S__mangled__          
1001c891  xdc_runtime_System_Module_GateProxy_enter__E                              
1001c895  xdc_runtime_System_Module_GateProxy_leave__E                              
1001c269  xdc_runtime_System_Module_GateProxy_query__E                              
1001c269  xdc_runtime_System_Module_GateProxy_query__E__mangled__                   
20002774  xdc_runtime_System_Module_State_0_atexitHandlers__A                       
200001f8  xdc_runtime_System_Module__state__V                                       
1001c87f  xdc_runtime_System_Module_startup__E                                      
000089b5  xdc_runtime_System_SupportProxy_abort__E                                  
00008f91  xdc_runtime_System_SupportProxy_exit__E                                   
000081e9  xdc_runtime_System_SupportProxy_flush__E                                  
00008629  xdc_runtime_System_SupportProxy_putch__E                                  
0000931d  xdc_runtime_System_SupportProxy_ready__E                                  
00000568  xdc_runtime_System_abortFxn__C                                            
1001c899  xdc_runtime_System_abortSpin__E                                           
1001c749  xdc_runtime_System_abort__E                                               
1001c681  xdc_runtime_System_atexit__E                                              
00002785  xdc_runtime_System_doPrint__I                                             
0000056c  xdc_runtime_System_exitFxn__C                                             
1001c89b  xdc_runtime_System_exitSpin__E                                            
1001c7d1  xdc_runtime_System_exit__E                                                
00009a00  xdc_runtime_System_extendFxn__C                                           
000081e9  xdc_runtime_System_flush__E                                               
00006e85  xdc_runtime_System_formatNum__I                                           
00000570  xdc_runtime_System_maxAtexitHandlers__C                                   
00004ec5  xdc_runtime_System_printfExtend__I                                        
00008fe1  xdc_runtime_System_printf__E                                              
00009495  xdc_runtime_System_printf_va__F                                           
1001c6b9  xdc_runtime_System_processAtExit__E                                       
00008b4d  xdc_runtime_System_putchar__I                                             
00008d65  xdc_runtime_System_vprintf__E                                             
0000932d  xdc_runtime_System_vsnprintf__E                                           
00000588  xdc_runtime_Text_charCnt__C                                               
0000973b  xdc_runtime_Text_charTab__A                                               
00000574  xdc_runtime_Text_charTab__C                                               
1001c71d  xdc_runtime_Text_cordText__E                                              
0000058a  xdc_runtime_Text_isLoaded__C                                              
00000578  xdc_runtime_Text_nameEmpty__C                                             
0000057c  xdc_runtime_Text_nameStatic__C                                            
00000580  xdc_runtime_Text_nameUnknown__C                                           
000089e5  xdc_runtime_Text_printVisFxn__I                                           
00007915  xdc_runtime_Text_putLab__E                                                
000060f9  xdc_runtime_Text_putMod__E                                                
00005d65  xdc_runtime_Text_putSite__E                                               
00009a0a  xdc_runtime_Text_registryModsLastId__C                                    
1001c7e9  xdc_runtime_Text_ropeText__E                                              
00009a0c  xdc_runtime_Text_unnamedModsLastId__C                                     
00009a04  xdc_runtime_Text_visitRopeFxn__C                                          
00009455  xdc_runtime_Text_visitRope__I                                             
0000822d  xdc_runtime_Text_xprintf__I                                               
1001c831  xdc_runtime_Timestamp_SupportProxy_get32__E                               
00009359  xdc_runtime_Timestamp_SupportProxy_get32__E__mangled__                    
1001b9d1  xdc_runtime_Timestamp_SupportProxy_get64__E                               
1001b9d1  xdc_runtime_Timestamp_SupportProxy_get64__E__mangled__                    
1001c12f  xdc_runtime_Timestamp_SupportProxy_getFreq__E                             
1001c12f  xdc_runtime_Timestamp_SupportProxy_getFreq__E__mangled__                  
1001c831  xdc_runtime_Timestamp_get32__E                                            
1001c831  xdc_runtime_Timestamp_get32__E                                            
1001b9d1  xdc_runtime_Timestamp_get64__E                                            
1001b9d1  xdc_runtime_Timestamp_get64__E                                            
1001c12f  xdc_runtime_Timestamp_getFreq__E                                          
1001c12f  xdc_runtime_Timestamp_getFreq__E                                          


GLOBAL SYMBOLS: SORTED BY Symbol Address 

address   name                                                                      
-------   ----                                                                      
00000000  __ASM__                                                                   
00000000  ti_sysbios_family_arm_m3_Hwi_resetVectors                                 
00000001  xdc_runtime_Startup__EXECFXN__C                                           
00000001  xdc_runtime_Startup__RESETFXN__C                                          
00000057  __ISA__                                                                   
00000069  __PLAT__                                                                  
00000090  __TARG__                                                                  
000000b5  __TRDR__                                                                  
00000100  ti_sysbios_knl_Task_Object__PARAMS__C                                     
0000013c  ti_sysbios_knl_Mailbox_Object__PARAMS__C                                  
00000170  ti_sysbios_family_arm_m3_Hwi_Object__PARAMS__C                            
000001a0  ti_sysbios_hal_Hwi_Object__PARAMS__C                                      
000001cc  ti_sysbios_heaps_HeapMem_Module__FXNS__C                                  
000001f4  ti_sysbios_knl_Swi_Object__PARAMS__C                                      
0000021c  ti_sysbios_gates_GateHwi_Module__FXNS__C                                  
00000240  ti_sysbios_gates_GateMutex_Module__FXNS__C                                
00000264  ti_sysbios_heaps_HeapMem_Object__PARAMS__C                                
00000288  ti_sysbios_knl_Clock_Object__PARAMS__C                                    
000002ac  ti_sysbios_knl_Semaphore_Object__PARAMS__C                                
000002d0  ti_sysbios_family_arm_m3_Hwi_Object__DESC__C                              
000002f0  ti_sysbios_gates_GateHwi_Object__DESC__C                                  
00000300  __STACK_SIZE                                                              
00000310  ti_sysbios_gates_GateMutex_Object__DESC__C                                
00000330  ti_sysbios_hal_Hwi_Object__DESC__C                                        
00000350  ti_sysbios_heaps_HeapMem_Object__DESC__C                                  
00000370  ti_sysbios_knl_Clock_Object__DESC__C                                      
00000390  ti_sysbios_knl_Mailbox_Object__DESC__C                                    
000003b0  ti_sysbios_knl_Queue_Object__DESC__C                                      
000003d0  ti_sysbios_knl_Semaphore_Object__DESC__C                                  
000003f0  ti_sysbios_knl_Swi_Object__DESC__C                                        
00000410  ti_sysbios_knl_Task_Object__DESC__C                                       
00000430  ti_sysbios_gates_GateHwi_Object__PARAMS__C                                
00000448  ti_sysbios_gates_GateMutex_Object__PARAMS__C                              
00000460  ti_sysbios_knl_Queue_Object__PARAMS__C                                    
00000478  ti_sysbios_knl_Idle_funcList__C                                           
00000484  ti_sysbios_family_arm_cc26xx_Timer_startupNeeded__C                       
00000488  ti_sysbios_family_arm_m3_Hwi_E_alreadyDefined__C                          
0000048c  ti_sysbios_family_arm_m3_Hwi_E_hwiLimitExceeded__C                        
00000490  ti_sysbios_family_arm_m3_Hwi_NUM_INTERRUPTS__C                            
00000494  ti_sysbios_family_arm_m3_Hwi_Object__count__C                             
00000498  ti_sysbios_family_arm_m3_Hwi_Object__table__C                             
0000049c  ti_sysbios_family_arm_m3_Hwi_ccr__C                                       
000004a0  ti_sysbios_family_arm_m3_Hwi_excHandlerFunc__C                            
000004a4  ti_sysbios_family_arm_m3_Hwi_nullIsrFunc__C                               
000004a8  ti_sysbios_family_arm_m3_Hwi_numSparseInterrupts__C                       
000004ac  ti_sysbios_family_arm_m3_Hwi_priGroup__C                                  
000004b0  ti_sysbios_family_arm_m3_TaskSupport_stackAlignment__C                    
000004b4  ti_sysbios_heaps_HeapMem_E_memory__C                                      
000004b8  ti_sysbios_heaps_HeapMem_Module__gateObj__C                               
000004bc  ti_sysbios_heaps_HeapMem_Object__count__C                                 
000004c0  ti_sysbios_heaps_HeapMem_Object__table__C                                 
000004c4  ti_sysbios_heaps_HeapMem_reqAlign__C                                      
000004c8  ti_sysbios_knl_Clock_serviceMargin__C                                     
000004cc  ti_sysbios_knl_Mailbox_Object__count__C                                   
000004d0  ti_sysbios_knl_Mailbox_Object__table__C                                   
000004d4  ti_sysbios_knl_Queue_Object__count__C                                     
000004d8  ti_sysbios_knl_Queue_Object__table__C                                     
000004dc  ti_sysbios_knl_Swi_Object__count__C                                       
000004e0  ti_sysbios_knl_Swi_Object__table__C                                       
000004e4  ti_sysbios_knl_Swi_numPriorities__C                                       
000004e8  ti_sysbios_knl_Task_Object__count__C                                      
000004ec  ti_sysbios_knl_Task_Object__table__C                                      
000004f0  ti_sysbios_knl_Task_allBlockedFunc__C                                     
000004f4  ti_sysbios_knl_Task_defaultStackHeap__C                                   
000004f8  ti_sysbios_knl_Task_defaultStackSize__C                                   
000004fc  ti_sysbios_knl_Task_numConstructedTasks__C                                
00000502  ti_sysbios_family_arm_cc26xx_Timer_Module__id__C                          
00000504  ti_sysbios_family_arm_cc26xx_TimestampProvider_useClockTimer__C           
00000506  ti_sysbios_family_arm_m3_Hwi_Module__id__C                                
00000508  ti_sysbios_gates_GateHwi_Module__id__C                                    
0000050a  ti_sysbios_gates_GateMutex_Module__id__C                                  
0000050c  ti_sysbios_heaps_HeapMem_Module__id__C                                    
0000050e  ti_sysbios_knl_Task_initStackFlag__C                                      
00000510  ti_sysbios_knl_Clock_tickMode__C                                          
00000514  xdc_runtime_Startup_firstFxns__C                                          
0000051c  xdc_runtime_Startup_lastFxns__C                                           
00000524  xdc_runtime_Assert_E_assertFailed__C                                      
00000528  xdc_runtime_Error_E_memory__C                                             
0000052c  xdc_runtime_Error_policyFxn__C                                            
00000530  xdc_runtime_IGateProvider_Interface__BASE__C                              
00000534  xdc_runtime_IHeap_Interface__BASE__C                                      
00000538  xdc_runtime_IModule_Interface__BASE__C                                    
0000053c  xdc_runtime_Main_Module__diagsEnabled__C                                  
00000540  xdc_runtime_Main_Module__diagsIncluded__C                                 
00000544  xdc_runtime_Main_Module__diagsMask__C                                     
00000548  xdc_runtime_Memory_defaultHeapInstance__C                                 
0000054c  xdc_runtime_Startup_execImpl__C                                           
00000550  xdc_runtime_Startup_maxPasses__C                                          
00000554  xdc_runtime_Startup_sfxnRts__C                                            
00000558  xdc_runtime_Startup_sfxnTab__C                                            
0000055c  xdc_runtime_Startup_startModsFxn__C                                       
00000560  xdc_runtime_SysCallback_abortFxn__C                                       
00000564  xdc_runtime_SysCallback_exitFxn__C                                        
00000568  xdc_runtime_System_abortFxn__C                                            
0000056c  xdc_runtime_System_exitFxn__C                                             
00000570  xdc_runtime_System_maxAtexitHandlers__C                                   
00000574  xdc_runtime_Text_charTab__C                                               
00000578  xdc_runtime_Text_nameEmpty__C                                             
0000057c  xdc_runtime_Text_nameStatic__C                                            
00000580  xdc_runtime_Text_nameUnknown__C                                           
00000584  xdc_runtime_Main_Module__id__C                                            
00000586  xdc_runtime_Memory_Module__id__C                                          
00000588  xdc_runtime_Text_charCnt__C                                               
0000058a  xdc_runtime_Text_isLoaded__C                                              
0000058c  xdc_runtime_Error_policy__C                                               
00000590  ti_sysbios_rom_ROM_AONRTCChannelEnable                                    
00000594  ti_sysbios_rom_ROM_AONRTCCompareValueSet                                  
00000598  ti_sysbios_rom_ROM_AONRTCCurrentCompareValueGet                           
0000059c  ti_sysbios_rom_ROM_AONRTCEventClear                                       
000005a0  ti_sysbios_rom_ROM_ti_sysbios_family_arm_cc26xx_Timer_getCount64__E       
000005a4  ti_sysbios_rom_ROM_ti_sysbios_family_arm_cc26xx_Timer_getCurrentTick__E   
000005a8  ti_sysbios_rom_ROM_ti_sysbios_family_arm_cc26xx_Timer_getMaxTicks__E      
000005ac  ti_sysbios_rom_ROM_ti_sysbios_family_arm_cc26xx_Timer_initDevice__I       
000005b0  ti_sysbios_rom_ROM_ti_sysbios_family_arm_cc26xx_Timer_setNextTick__E      
000005b4  ti_sysbios_rom_ROM_ti_sysbios_family_arm_cc26xx_Timer_setThreshold__I     
000005b8  ti_sysbios_rom_ROM_ti_sysbios_family_arm_cc26xx_Timer_start__E            
000005bc  ti_sysbios_rom_ROM_ti_sysbios_family_arm_cc26xx_TimestampProvider_get32__E
000005c0  ti_sysbios_rom_ROM_xdc_runtime_Startup_getState__I                        
000005c4  ti_sysbios_rom_ROM_xdc_runtime_System_SupportProxy_abort__E               
000005c8  ti_sysbios_rom_ROM_xdc_runtime_System_SupportProxy_exit__E                
000005cc  ti_sysbios_gates_GateMutex_Instance_State_sem__O                          
000005d0  ti_sysbios_knl_Clock_Module_State_clockQ__O                               
000005d4  ti_sysbios_knl_Mailbox_Instance_State_dataQue__O                          
000005d8  ti_sysbios_knl_Mailbox_Instance_State_dataSem__O                          
000005dc  ti_sysbios_knl_Mailbox_Instance_State_freeQue__O                          
000005e0  ti_sysbios_knl_Mailbox_Instance_State_freeSem__O                          
000005e4  ti_sysbios_knl_Semaphore_Instance_State_pendQ__O                          
000005e8  ti_sysbios_knl_Task_Module_State_inactiveQ__O                             
000005ed  __TI_printfi                                                              
0000103b  _nop                                                                      
0000103d  pow                                                                       
0000103d  powl                                                                      
00001a01  MPU9250SelfTest                                                           
00001f75  accelgyrocalMPU9250                                                       
00002445  morseReadTask                                                             
00002785  xdc_runtime_System_doPrint__I                                             
00002d21  Power_sleep                                                               
00002f49  NOROM_SysCtrlSetRechargeBeforePowerDown                                   
0000314d  main                                                                      
000036e9  PIN_init                                                                  
000038ad  __aeabi_dsub                                                              
000038b7  __aeabi_dadd                                                              
00003a65  UARTCC26XX_open                                                           
00003c05  countDeviation                                                            
00003da5  PowerCC26XX_doCalibrate                                                   
00003f29  sqrt                                                                      
00003f29  sqrtl                                                                     
000041d5  __aeabi_ddiv                                                              
0000430b  __aeabi_idiv0                                                             
0000430b  __aeabi_ldiv0                                                             
0000430d  NOROM_SetupAfterColdResetWakeupFromShutDownCfg3                           
0000455d  mpu9250_get_data                                                          
0000467d  Power_init                                                                
00004799  UARTCC26XX_read                                                           
000048b5  fputs                                                                     
000049c9  UARTCC26XX_hwiIntFxn                                                      
00004ad9  UARTCC26XX_write                                                          
00004bd5  __aeabi_dmul                                                              
00004cd1  __aeabi_fsub                                                              
00004cd5  __aeabi_fadd                                                              
00004dcb  ti_sysbios_BIOS_linkedWithIncorrectBootLibrary__E                         
00004dcd  I2CCC26XX_open                                                            
00004ec5  xdc_runtime_System_printfExtend__I                                        
00004fbd  uartTaskFxn                                                               
00005195  initMPU9250                                                               
0000527d  NOROM_SetupAfterColdResetWakeupFromShutDownCfg2                           
00005441  setvbuf                                                                   
0000551d  PowerCC26XX_standbyPolicy                                                 
000055f1  Power_releaseDependency                                                   
000056c5  Power_setDependency                                                       
00005795  ldexp                                                                     
00005795  ldexpl                                                                    
00005795  scalbn                                                                    
00005795  scalbnl                                                                   
0000592d  I2CCC26XX_transfer                                                        
000059ef  ti_sysbios_BIOS_nullFunc__I                                               
00005aad  playMorseCode                                                             
00005c1b  ti_sysbios_knl_Clock_triggerFunc__I                                       
00005c1d  NOROM_SetupTrimDevice                                                     
00005c1d  ti_sysbios_family_arm_cc26xx_Boot_trimDevice                              
00005cc5  __TI_auto_init                                                            
00005d65  xdc_runtime_Text_putSite__E                                               
00005e03  __aeabi_memcpy                                                            
00005e03  __aeabi_memcpy4                                                           
00005e03  __aeabi_memcpy8                                                           
00005e03  memcpy                                                                    
00005e9f  xdc_runtime_SysCallback_defaultAbort                                      
00005ea1  ti_sysbios_knl_Clock_workFuncDynamic__E                                   
00005f39  __aeabi_uldivmod                                                          
00005fcf  xdc_runtime_SysCallback_defaultExit                                       
00005fd1  PIN_open                                                                  
000060f9  xdc_runtime_Text_putMod__E                                                
0000618d  __aeabi_fdiv                                                              
00006221  I2CCC26XX_cancel                                                          
000062b1  mpu9250_setup                                                             
000064e9  UARTCC26XX_writeCancel                                                    
00006575  countAverage                                                              
00006601  fputc                                                                     
00006601  putc                                                                      
0000668d  __aeabi_cdcmpeq                                                           
0000668d  __aeabi_cdcmple                                                           
00006713  __aeabi_cdrcmple                                                          
00006799  writeByte                                                                 
00006895  readByte                                                                  
00006911  __aeabi_fmul                                                              
0000698b  __aeabi_memclr                                                            
0000698b  __aeabi_memclr4                                                           
0000698b  __aeabi_memclr8                                                           
0000698d  __aeabi_memset                                                            
0000698d  __aeabi_memset4                                                           
0000698d  __aeabi_memset8                                                           
00006993  memset                                                                    
00006a05  NOROM_SetupAfterColdResetWakeupFromShutDownCfg1                           
00006a7d  UARTCC26XX_close                                                          
00006af5  PowerCC26XX_auxISR                                                        
00006b69  __TI_closefile                                                            
00006c51  ti_sysbios_family_arm_cc26xx_Timer_start__E                               
00006d39  NOROM_ChipInfo_GetHwRevision                                              
00006e17  __aeabi_d2f                                                               
00006e85  xdc_runtime_System_formatNum__I                                           
00006ef5  HOSTrename                                                                
00006f61  NOROM_SetupGetTrimForAmpcompCtrl                                          
00006fcd  PowerCC26XX_calibrate                                                     
00007039  UARTCC26XX_readCancel                                                     
000070a5  playSound                                                                 
00007111  HOSTlseek                                                                 
00007179  NOROM_SetupGetTrimForAnabypassValue1                                      
000071e1  NOROM_SysCtrl_DCDC_VoltageConditionalControl                              
00007249  __TI_decompress_lzss                                                      
000072b1  printf                                                                    
00007319  I2CCC26XX_close                                                           
000073e1  UARTCC26XX_control                                                        
00007445  fseek                                                                     
000074a9  __TI_wrt_ok                                                               
0000750d  HOSTopen                                                                  
0000756d  PowerCC26XX_RCOSC_clockFunc                                               
000075cd  __aeabi_cfcmpeq                                                           
000075cd  __aeabi_cfcmple                                                           
0000762d  __aeabi_cfrcmple                                                          
000076ed  NOROM_OSCHF_AttemptToSwitchToXosc                                         
00007749  NOROM_SysCtrlAdjustRechargeAfterPowerDown                                 
000077a5  PIN_remove                                                                
00007801  close                                                                     
0000785d  frexp                                                                     
0000785d  frexpl                                                                    
000078b9  xdc_runtime_Startup_getState__I                                           
00007915  xdc_runtime_Text_putLab__E                                                
00007971  HOSTread                                                                  
000079c9  HOSTwrite                                                                 
00007a79  PowerCC26XX_initiateCalibration                                           
00007b27  __TI_ltoa                                                                 
00007bd1  getAres                                                                   
00007c25  getGres                                                                   
00007ccd  NOROM_SetupSetCacheModeAccordingToCcfgSetting                             
00007d1d  NOROM_OSCClockSourceSet                                                   
00007d69  __TI_doflush                                                              
00007db5  atoi                                                                      
00007e01  copy_in                                                                   
00007ee1  NOROM_ChipInfo_GetChipFamily                                              
00007f29  NOROM_DDI16BitfieldWrite                                                  
00007f71  PIN_setOutputEnable                                                       
00008049  __aeabi_d2iz                                                              
00008091  RingBuf_put                                                               
000080d9  HOSTclose                                                                 
0000811d  HOSTunlink                                                                
00008161  ResetISR                                                                  
00008161  _c_int00                                                                  
000081a5  getdevice                                                                 
000081e9  xdc_runtime_SysMin_flush__E                                               
000081e9  xdc_runtime_System_SupportProxy_flush__E                                  
000081e9  xdc_runtime_System_flush__E                                               
0000822d  xdc_runtime_Text_xprintf__I                                               
00008271  NOROM_DDI16BitfieldRead                                                   
000082b1  RingBuf_get                                                               
000082f1  __aeabi_uidiv                                                             
000082f1  __aeabi_uidivmod                                                          
00008331  sprintf                                                                   
000083b1  NOROM_OSC_HPOSCRelativeFrequencyOffsetGet                                 
000083ed  PIN_setOutputValue                                                        
00008429  UARTCC26XX_swiIntFxn                                                      
00008465  buttonFxn                                                                 
000084a1  I2C_init                                                                  
000084d9  __TI_writemsg                                                             
00008507  C$$IO$$                                                                   
00008549  __aeabi_f2d                                                               
00008581  __aeabi_i2f                                                               
000085b9  ti_sysbios_family_arm_cc26xx_Timer_getCurrentTick__E                      
00008629  xdc_runtime_SysMin_putch__E                                               
00008629  xdc_runtime_System_SupportProxy_putch__E                                  
00008661  strncpy                                                                   
00008699  NOROM_OSCHF_SwitchToRcOscTurnOffXosc                                      
000086cd  PIN_setConfig                                                             
00008701  __TI_cleanup                                                              
00008735  __TI_readmsg                                                              
0000879d  ti_sysbios_family_arm_cc26xx_Timer_initDevice__I                          
000087d1  ti_sysbios_family_arm_cc26xx_Timer_setNextTick__E                         
00008805  I2C_open                                                                  
00008835  NOROM_SetupSetAonRtcSubSecInc                                             
00008865  Power_releaseConstraint                                                   
00008895  Power_setConstraint                                                       
000088c5  UART_open                                                                 
000088f5  finddevice                                                                
00008925  ti_sysbios_BIOS_atExitFunc__I                                             
00008955  ti_sysbios_BIOS_startFunc__I                                              
00008985  ti_sysbios_family_arm_cc26xx_Timer_setThreshold__I                        
000089b5  xdc_runtime_SysMin_abort__E                                               
000089b5  xdc_runtime_System_SupportProxy_abort__E                                  
000089e5  xdc_runtime_Text_printVisFxn__I                                           
00008a15  malloc                                                                    
00008a43  __aeabi_i2d                                                               
00008a71  NOROM_DDI32RegWrite                                                       
00008a9d  NOROM_SetupGetTrimForRadcExtCfg                                           
00008ac9  PINCC26XX_setMux                                                          
00008af5  ti_sysbios_knl_Clock_getTicksUntilInterrupt__E                            
00008b21  remove                                                                    
00008b21  unlink                                                                    
00008b4d  xdc_runtime_System_putchar__I                                             
00008b79  NOROM_AONBatMonTemperatureGetDegC                                         
00008ba1  Power_registerNotify                                                      
00008bc9  SafeHapiVoid                                                              
00008bf1  lseek                                                                     
00008c19  write                                                                     
00008c41  List_put                                                                  
00008c69  PINCC26XX_getPinCount                                                     
00008c8d  delay                                                                     
00008cd5  __aeabi_ui2f                                                              
00008cf9  ti_sysbios_BIOS_registerRTSLock__I                                        
00008d1d  ti_sysbios_BIOS_removeRTSLock__I                                          
00008d41  ti_sysbios_family_arm_cc26xx_Timer_getMaxTicks__E                         
00008d65  xdc_runtime_System_vprintf__E                                             
00008d89  memccpy                                                                   
00008dab  xdc_runtime_SysMin_output__I                                              
00008dcd  NOROM_SetupGetTrimForXoscHfCtl                                            
00008ded  Power_unregisterNotify                                                    
00008e0d  memchr                                                                    
00008e2d  ti_sysbios_BIOS_rtsLock__I                                                
00008e4d  ti_sysbios_family_arm_cc26xx_Timer_dynamicStub__E                         
00008e6d  ti_sysbios_knl_Clock_stop__E                                              
00008e8d  xdc_runtime_SysMin_Module_startup__E                                      
00008ead  PIN_close                                                                 
00008ecb  Power_getTransitionLatency                                                
00008ee9  NOROM_OSCClockSourceGet                                                   
00008f05  NOROM_SetupGetTrimForAmpcompTh2                                           
00008f21  NOROM_SetupGetTrimForRcOscLfRtuneCtuneTrim                                
00008f75  xdc_runtime_Registry_findById__E                                          
00008f91  xdc_runtime_SysMin_exit__E                                                
00008f91  xdc_runtime_System_SupportProxy_exit__E                                   
00008fad  List_remove                                                               
00008fc7  free                                                                      
00008fe1  xdc_runtime_System_printf__E                                              
00008ffd  NOROM_AONRTCCurrentCompareValueGet                                        
00009015  NOROM_ChipInfo_GetPackageType                                             
0000902d  NOROM_OSCHF_TurnOnXosc                                                    
00009045  NOROM_SetupGetTrimForAdcShModeEn                                          
0000905d  NOROM_SetupGetTrimForAdcShVbufEn                                          
00009075  NOROM_SetupGetTrimForAmpcompTh1                                           
0000908d  NOROM_SetupGetTrimForDblrLoopFilterResetVoltage                           
000090a5  NOROM_SetupGetTrimForRcOscLfIBiasTrim                                     
000090bd  NOROM_SetupGetTrimForXoscLfRegulatorAndCmirrwrRatio                       
000090d5  Power_idleFunc                                                            
000090ed  UARTCC26XX_init                                                           
00009105  UART_Params_init                                                          
0000911d  _args_main                                                                
00009165  __aeabi_lmul                                                              
0000917d  strcmp                                                                    
00009195  ti_sysbios_BIOS_rtsUnlock__I                                              
000091ad  ti_sysbios_knl_Swi_or__E                                                  
000091c5  strchr                                                                    
000091db  strcpy                                                                    
000091f1  ti_sysbios_BIOS_exitFunc__I                                               
0000921d  NOROM_AONRTCCurrent64BitValueGet                                          
00009231  NOROM_ThisCodeIsBuiltForCC26xxHwRev22AndLater_HaltIfViolated              
00009245  PIN_getOutputValue                                                        
00009259  strlen                                                                    
0000926d  ti_sysbios_knl_Clock_doTick__I                                            
00009281  uartFxn                                                                   
00009295  RingBuf_construct                                                         
000092a7  wcslen                                                                    
000092b9  xdc_runtime_Startup_exec__I                                               
000092cd  I2C_Params_init                                                           
000092dd  NOROM_SetupGetTrimForXoscHfFastStart                                      
000092ed  NOROM_SetupGetTrimForXoscHfIbiastherm                                     
0000931d  xdc_runtime_SysMin_ready__E                                               
0000931d  xdc_runtime_System_SupportProxy_ready__E                                  
0000932d  xdc_runtime_System_vsnprintf__E                                           
0000933d  NOROM_VIMSModeGet                                                         
0000934b  __TI_decompress_none                                                      
00009359  ti_sysbios_family_arm_cc26xx_TimestampProvider_get32__E                   
00009359  xdc_runtime_Timestamp_SupportProxy_get32__E__mangled__                    
00009367  NOROM_CPUcpsid                                                            
00009373  NOROM_CPUcpsie                                                            
0000937f  PIN_registerIntCb                                                         
0000938d  Power_getConstraintMask                                                   
00009399  Power_getDependencyCount                                                  
000093a5  _register_lock                                                            
000093b1  _register_unlock                                                          
000093bd  copysign                                                                  
000093bd  copysignl                                                                 
000093c9  __TI_zero_init                                                            
000093d5  ti_sysbios_knl_Swi_getTrigger__E                                          
000093e1  xdc_runtime_Startup_rtsDone__E                                            
000093ed  I2CCC26XX_init                                                            
000093f7  I2C_transfer                                                              
00009401  List_empty                                                                
0000940b  UART_read                                                                 
00009415  UART_readCancel                                                           
0000941f  UART_write                                                                
0000943d  __aeabi_errno_addr                                                        
00009455  xdc_runtime_Text_visitRope__I                                             
0000945d  I2CCC26XX_control                                                         
00009463  NOROM_CPUdelay                                                            
00009469  UARTCC26XX_readPolling                                                    
0000946f  UARTCC26XX_writePolling                                                   
00009475  HwiP_disable                                                              
00009479  List_head                                                                 
0000947d  List_next                                                                 
0000948d  ti_sysbios_family_arm_cc26xx_Timer_getCount64__E                          
00009491  xdc_runtime_Startup_reset__I                                              
00009495  xdc_runtime_System_printf_va__F                                           
00009638  _ctypes_                                                                  
0000973b  xdc_runtime_Text_charTab__A                                               
0000973c  BoardGpioInitTable                                                        
000097a4  resourceDB                                                                
000098a8  UARTCC26XX_fxnTable                                                       
000098d0  xdc_runtime_Startup_sfxnTab__A                                            
000098f8  UART_defaultParams                                                        
0000991c  I2CCC26XX_fxnTable                                                        
0000993c  uartCC26XXHWAttrs                                                         
0000995c  I2C_config                                                                
00009974  UART_config                                                               
0000998c  i2cCC26xxHWAttrs                                                          
000099a4  xdc_runtime_Startup_sfxnRts__A                                            
000099b8  PowerCC26XX_config                                                        
000099c8  I2C_defaultParams                                                         
000099d8  xdc_runtime_Startup_firstFxns__A                                          
000099e4  PINCC26XX_hwAttrs                                                         
000099ec  ti_sysbios_knl_Clock_tickPeriod__C                                        
000099f0  ti_sysbios_knl_Clock_triggerClock__C                                      
000099f4  ti_sysbios_knl_Idle_funcList__A                                           
000099f8  xdc_runtime_SysMin_bufSize__C                                             
000099fc  xdc_runtime_SysMin_outputFunc__C                                          
00009a00  xdc_runtime_System_extendFxn__C                                           
00009a04  xdc_runtime_Text_visitRopeFxn__C                                          
00009a08  xdc_runtime_SysMin_flushAtExit__C                                         
00009a0a  xdc_runtime_Text_registryModsLastId__C                                    
00009a0c  xdc_runtime_Text_unnamedModsLastId__C                                     
00009a10  __TI_static_base__                                                        
00009c28  __TI_Handler_Table_Base                                                   
00009c34  __TI_Handler_Table_Limit                                                  
00009c70  __TI_CINIT_Base                                                           
00009cd0  __TI_CINIT_Limit                                                          
0001ffa8  __ccfg                                                                    
1001a001  ti_sysbios_knl_Mailbox_Instance_init__E                                   
1001a0cd  ti_sysbios_knl_Semaphore_pend__E                                          
1001a199  ti_sysbios_heaps_HeapMem_alloc__E                                         
1001a25d  ti_sysbios_knl_Task_Instance_init__E                                      
1001a319  ti_sysbios_family_arm_m3_Hwi_postInit__I                                  
1001a3c9  ti_sysbios_family_arm_m3_Hwi_Instance_init__E                             
1001a469  ti_sysbios_family_arm_cc26xx_Timer_periodicStub__E                        
1001a4fd  ti_sysbios_knl_Task_Instance_finalize__E                                  
1001a591  ti_sysbios_knl_Mailbox_post__E                                            
1001a615  ti_sysbios_knl_Task_postInit__I                                           
1001a699  ti_sysbios_family_arm_m3_Hwi_initNVIC__E                                  
1001a719  ti_sysbios_knl_Clock_startI__E                                            
1001a795  ti_sysbios_heaps_HeapMem_free__E                                          
1001a80d  ti_sysbios_knl_Clock_walkQueueDynamic__E                                  
1001a885  ti_sysbios_knl_Clock_workFunc__E                                          
1001a8fd  ti_sysbios_knl_Mailbox_pend__E                                            
1001a96d  ti_sysbios_knl_Task_sleep__E                                              
1001a9dd  ti_sysbios_knl_Mailbox_Instance_finalize__E                               
1001aa49  ti_sysbios_family_arm_m3_Hwi_dispatchC__I                                 
1001aab1  ti_sysbios_family_arm_m3_Hwi_Object__create__S                            
1001ab15  ti_sysbios_family_arm_m3_Hwi_create                                       
1001ab79  ti_sysbios_hal_Hwi_create                                                 
1001abdd  ti_sysbios_knl_Mailbox_create                                             
1001ac41  ti_sysbios_knl_Semaphore_post__E                                          
1001aca5  ti_sysbios_knl_Swi_Instance_init__E                                       
1001ad05  ti_sysbios_knl_Swi_create                                                 
1001ad61  ti_sysbios_knl_Swi_restoreHwi__E                                          
1001adbd  ti_sysbios_knl_Task_Module_startup__E                                     
1001ae19  ti_sysbios_knl_Task_create                                                
1001ae75  ti_sysbios_knl_Task_startCore__E                                          
1001aed1  ti_sysbios_family_arm_m3_Hwi_Instance_finalize__E                         
1001af29  ti_sysbios_family_arm_m3_Hwi_construct                                    
1001af81  ti_sysbios_knl_Mailbox_construct                                          
1001afd9  ti_sysbios_knl_Swi_run__I                                                 
1001b031  ti_sysbios_knl_Swi_schedule__I                                            
1001b085  ti_sysbios_knl_Swi_construct                                              
1001b0d5  ti_sysbios_knl_Swi_runLoop__I                                             
1001b125  ti_sysbios_knl_Task_construct                                             
1001b175  ti_sysbios_knl_Task_schedule__I                                           
1001b1c1  ti_sysbios_family_arm_m3_Hwi_Module_startup__E                            
1001b209  ti_sysbios_heaps_HeapMem_getStats__E                                      
1001b251  ti_sysbios_knl_Mailbox_Module_startup__E                                  
1001b299  ti_sysbios_family_arm_m3_Hwi_disableInterrupt__E                          
1001b299  ti_sysbios_hal_Hwi_HwiProxy_disableInterrupt__E__mangled__                
1001b2dd  ti_sysbios_family_arm_m3_Hwi_enableInterrupt__E                           
1001b2dd  ti_sysbios_hal_Hwi_HwiProxy_enableInterrupt__E__mangled__                 
1001b321  ti_sysbios_knl_Swi_post__E                                                
1001b365  ti_sysbios_knl_Task_allBlockedFunction__I                                 
1001b3a9  ti_sysbios_knl_Task_yield__E                                              
1001b3ed  ti_sysbios_knl_Clock_create                                               
1001b429  ti_sysbios_knl_Task_exit__E                                               
1001b463  ti_sysbios_gates_GateHwi_Instance_init__E                                 
1001b465  ti_sysbios_family_arm_m3_Hwi_getStackInfo__E                              
1001b465  ti_sysbios_hal_Hwi_HwiProxy_getStackInfo__E__mangled__                    
1001b49d  ti_sysbios_family_arm_m3_TaskSupport_start__E                             
1001b49d  ti_sysbios_knl_Task_SupportProxy_start__E__mangled__                      
1001b4d5  ti_sysbios_heaps_HeapMem_Instance_init__E                                 
1001b50d  ti_sysbios_knl_Clock_Instance_init__E                                     
1001b545  ti_sysbios_heaps_HeapMem_init__I                                          
1001b579  ti_sysbios_knl_Clock_construct                                            
1001b5ad  ti_sysbios_knl_Semaphore_create                                           
1001b5e1  ti_sysbios_knl_Swi_restore__E                                             
1001b615  ti_sysbios_knl_Task_blockI__E                                             
1001b649  ti_sysbios_gates_GateMutex_Object__create__S                              
1001b679  ti_sysbios_gates_GateMutex_create                                         
1001b6a9  ti_sysbios_gates_GateMutex_enter__E                                       
1001b6d9  ti_sysbios_knl_Clock_getTicks__E                                          
1001b709  ti_sysbios_knl_Semaphore_construct                                        
1001b739  ti_sysbios_knl_Task_processVitalTaskFlag__I                               
1001b769  ti_sysbios_family_arm_cc26xx_Timer_postInit__I                            
1001b795  ti_sysbios_family_arm_cc26xx_Timer_startup__E                             
1001b795  ti_sysbios_knl_Clock_TimerProxy_startup__E                                
1001b795  ti_sysbios_knl_Clock_TimerProxy_startup__E__mangled__                     
1001b7c1  ti_sysbios_family_arm_m3_Hwi_Object__get__S                               
1001b7ed  ti_sysbios_gates_GateMutex_construct                                      
1001b819  ti_sysbios_hal_Hwi_initStack                                              
1001b845  ti_sysbios_heaps_HeapMem_Object__create__S                                
1001b871  ti_sysbios_heaps_HeapMem_Object__get__S                                   
1001b89d  ti_sysbios_knl_Mailbox_Object__get__S                                     
1001b8c9  ti_sysbios_knl_Mailbox_postInit__I                                        
1001b8f5  ti_sysbios_knl_Queue_construct                                            
1001b921  ti_sysbios_knl_Queue_create                                               
1001b94d  ti_sysbios_knl_Semaphore_pendTimeout__I                                   
1001b979  ti_sysbios_knl_Swi_Object__get__S                                         
1001b9a5  ti_sysbios_knl_Task_unblockI__E                                           
1001b9d1  ti_sysbios_family_arm_cc26xx_TimestampProvider_get64__E                   
1001b9d1  xdc_runtime_Timestamp_SupportProxy_get64__E                               
1001b9d1  xdc_runtime_Timestamp_SupportProxy_get64__E__mangled__                    
1001b9d1  xdc_runtime_Timestamp_get64__E                                            
1001b9d1  xdc_runtime_Timestamp_get64__E                                            
1001b9f9  ti_sysbios_hal_Hwi_Instance_init__E                                       
1001ba21  ti_sysbios_knl_Clock_addI__E                                              
1001ba49  ti_sysbios_knl_Task_restore__E                                            
1001ba71  ti_sysbios_family_arm_cc26xx_Timer_Module_startup__E                      
1001ba95  ti_sysbios_gates_GateHwi_Object__create__S                                
1001bab9  ti_sysbios_BIOS_RtsGateProxy_Object__delete__S                            
1001bab9  ti_sysbios_BIOS_RtsGateProxy_Object__delete__S__mangled__                 
1001bab9  ti_sysbios_gates_GateMutex_Object__delete__S                              
1001bab9  ti_sysbios_heaps_HeapMem_Module_GateProxy_Object__delete__S               
1001bab9  ti_sysbios_heaps_HeapMem_Module_GateProxy_Object__delete__S__mangled__    
1001badd  ti_sysbios_knl_Clock_Object__delete__S                                    
1001bb01  ti_sysbios_knl_Semaphore_Instance_init__E                                 
1001bb25  ti_sysbios_knl_Semaphore_Object__delete__S                                
1001bb49  ti_sysbios_family_arm_cc26xx_Timer_Module__startupDone__S                 
1001bb49  ti_sysbios_knl_Clock_TimerProxy_Module__startupDone__S__mangled__         
1001bb69  ti_sysbios_family_arm_cc26xx_TimestampProvider_Module_startup__E          
1001bb89  ti_sysbios_family_arm_m3_Hwi_Module__startupDone__S                       
1001bb89  ti_sysbios_hal_Hwi_HwiProxy_Module__startupDone__S__mangled__             
1001bba9  ti_sysbios_family_arm_m3_Hwi_Object__delete__S                            
1001bba9  ti_sysbios_hal_Hwi_HwiProxy_Object__delete__S                             
1001bba9  ti_sysbios_hal_Hwi_HwiProxy_Object__delete__S__mangled__                  
1001bbc9  ti_sysbios_family_arm_m3_Hwi_excHandler__I                                
1001bbe9  ti_sysbios_gates_GateHwi_Handle__label__S                                 
1001bbe9  xdc_runtime_Main_Module_GateProxy_Handle__label__S                        
1001bbe9  xdc_runtime_System_Module_GateProxy_Handle__label__S                      
1001bbe9  xdc_runtime_System_Module_GateProxy_Handle__label__S__mangled__           
1001bc09  ti_sysbios_gates_GateHwi_Object__delete__S                                
1001bc09  xdc_runtime_Main_Module_GateProxy_Object__delete__S                       
1001bc09  xdc_runtime_System_Module_GateProxy_Object__delete__S                     
1001bc09  xdc_runtime_System_Module_GateProxy_Object__delete__S__mangled__          
1001bc29  ti_sysbios_BIOS_RtsGateProxy_Handle__label__S                             
1001bc29  ti_sysbios_BIOS_RtsGateProxy_Handle__label__S__mangled__                  
1001bc29  ti_sysbios_gates_GateMutex_Handle__label__S                               
1001bc29  ti_sysbios_heaps_HeapMem_Module_GateProxy_Handle__label__S                
1001bc29  ti_sysbios_heaps_HeapMem_Module_GateProxy_Handle__label__S__mangled__     
1001bc49  ti_sysbios_gates_GateMutex_Object__destruct__S                            
1001bc69  ti_sysbios_hal_Hwi_Object__delete__S                                      
1001bc89  ti_sysbios_heaps_HeapMem_Handle__label__S                                 
1001bc89  xdc_runtime_Memory_HeapProxy_Handle__label__S                             
1001bc89  xdc_runtime_Memory_HeapProxy_Handle__label__S__mangled__                  
1001bca9  ti_sysbios_heaps_HeapMem_Object__delete__S                                
1001bca9  xdc_runtime_Memory_HeapProxy_Object__delete__S                            
1001bca9  xdc_runtime_Memory_HeapProxy_Object__delete__S__mangled__                 
1001bcc9  ti_sysbios_knl_Clock_Module_startup__E                                    
1001bce9  ti_sysbios_knl_Clock_Object__destruct__S                                  
1001bd09  ti_sysbios_knl_Idle_run__E                                                
1001bd29  ti_sysbios_knl_Mailbox_Object__delete__S                                  
1001bd49  ti_sysbios_knl_Queue_Object__delete__S                                    
1001bd69  ti_sysbios_knl_Queue_Object__get__S                                       
1001bd89  ti_sysbios_knl_Semaphore_Object__destruct__S                              
1001bda9  ti_sysbios_knl_Swi_Object__delete__S                                      
1001bdc9  ti_sysbios_knl_Task_Object__delete__S                                     
1001bde9  ti_sysbios_knl_Task_Object__get__S                                        
1001be09  ti_sysbios_knl_Task_enter__I                                              
1001be29  ti_sysbios_knl_Task_restoreHwi__E                                         
1001be49  ti_sysbios_hal_Hwi_HwiProxy_create                                        
1001be67  ti_sysbios_knl_Clock_logTick__E                                           
1001be69  ti_sysbios_family_arm_m3_Hwi_Object__destruct__S                          
1001be85  ti_sysbios_family_arm_m3_Hwi_setPriority__E                               
1001bea1  ti_sysbios_gates_GateMutex_Instance_init__E                               
1001bebd  ti_sysbios_knl_Clock_scheduleNextTick__E                                  
1001bed9  ti_sysbios_knl_Mailbox_Object__destruct__S                                
1001bef5  ti_sysbios_knl_Queue_Object__destruct__S                                  
1001bf11  ti_sysbios_knl_Queue_get__E                                               
1001bf2d  ti_sysbios_knl_Queue_put__E                                               
1001bf49  ti_sysbios_knl_Swi_Object__destruct__S                                    
1001bf65  ti_sysbios_knl_Task_Object__destruct__S                                   
1001bf81  ti_sysbios_knl_Task_sleepTimeout__I                                       
1001bf9b  ti_sysbios_knl_Swi_Instance_finalize__E                                   
1001bf9d  ti_sysbios_gates_GateMutex_leave__E                                       
1001bfb5  ti_sysbios_knl_Task_unblock__E                                            
1001bfcd  ti_sysbios_knl_Clock_Instance_finalize__E                                 
1001bfe3  ti_sysbios_knl_Clock_start__E                                             
1001bff9  ti_sysbios_BIOS_getCpuFreq__E                                             
1001c00d  ti_sysbios_family_arm_m3_Hwi_switchFromBootStack__E                       
1001c00d  ti_sysbios_hal_Hwi_HwiProxy_switchFromBootStack__E__mangled__             
1001c021  ti_sysbios_hal_Hwi_Module_startup__E                                      
1001c035  ti_sysbios_BIOS_exit__E                                                   
1001c045  ti_sysbios_BIOS_setThreadType__E                                          
1001c055  ti_sysbios_BIOS_start__E                                                  
1001c065  ti_sysbios_family_arm_m3_Hwi_plug__E                                      
1001c075  ti_sysbios_gates_GateMutex_Instance_finalize__E                           
1001c085  ti_sysbios_hal_Hwi_HwiProxy_Object__create__S                             
1001c095  ti_sysbios_knl_Clock_TimerProxy_getCurrentTick__E                         
1001c0a5  ti_sysbios_knl_Clock_TimerProxy_getMaxTicks__E                            
1001c0b5  ti_sysbios_knl_Clock_TimerProxy_setNextTick__E                            
1001c0c5  ti_sysbios_knl_Semaphore_Instance_finalize__E                             
1001c0d5  ti_sysbios_knl_Swi_disable__E                                             
1001c0e5  ti_sysbios_knl_Swi_enabled__E                                             
1001c0f5  ti_sysbios_knl_Task_disable__E                                            
1001c105  ti_sysbios_heaps_HeapMem_restore__E                                       
1001c113  ti_sysbios_knl_Queue_empty__E                                             
1001c121  ti_sysbios_knl_Queue_remove__E                                            
1001c12f  ti_sysbios_family_arm_cc26xx_TimestampProvider_getFreq__E                 
1001c12f  xdc_runtime_Timestamp_SupportProxy_getFreq__E                             
1001c12f  xdc_runtime_Timestamp_SupportProxy_getFreq__E__mangled__                  
1001c12f  xdc_runtime_Timestamp_getFreq__E                                          
1001c12f  xdc_runtime_Timestamp_getFreq__E                                          
1001c13d  ti_sysbios_family_arm_m3_Hwi_Params__init__S                              
1001c13d  ti_sysbios_hal_Hwi_HwiProxy_Params__init__S                               
1001c13d  ti_sysbios_hal_Hwi_HwiProxy_Params__init__S__mangled__                    
1001c149  ti_sysbios_family_arm_m3_Hwi_disableFxn__E                                
1001c155  ti_sysbios_family_arm_m3_Hwi_enableFxn__E                                 
1001c161  ti_sysbios_family_arm_m3_TaskSupport_getStackAlignment__E                 
1001c161  ti_sysbios_knl_Task_SupportProxy_getStackAlignment__E__mangled__          
1001c16d  ti_sysbios_gates_GateHwi_enter__E                                         
1001c179  ti_sysbios_BIOS_RtsGateProxy_Params__init__S                              
1001c179  ti_sysbios_BIOS_RtsGateProxy_Params__init__S__mangled__                   
1001c179  ti_sysbios_gates_GateMutex_Params__init__S                                
1001c179  ti_sysbios_heaps_HeapMem_Module_GateProxy_Params__init__S                 
1001c179  ti_sysbios_heaps_HeapMem_Module_GateProxy_Params__init__S__mangled__      
1001c185  ti_sysbios_knl_Clock_Params__init__S                                      
1001c191  ti_sysbios_knl_Clock_getTimerHandle__E                                    
1001c19d  ti_sysbios_knl_Mailbox_Params__init__S                                    
1001c1a9  ti_sysbios_knl_Queue_dequeue__E                                           
1001c1b5  ti_sysbios_knl_Queue_enqueue__E                                           
1001c1c1  ti_sysbios_knl_Semaphore_Params__init__S                                  
1001c1cd  ti_sysbios_knl_Swi_Params__init__S                                        
1001c1d9  ti_sysbios_knl_Task_Params__init__S                                       
1001c1e5  ti_sysbios_knl_Task_self__E                                               
1001c1f1  ti_sysbios_hal_Hwi_Instance_finalize__E                                   
1001c1fb  ti_sysbios_family_arm_m3_Hwi_doSwiRestore__I                              
1001c203  ti_sysbios_family_arm_m3_Hwi_startup__E                                   
1001c203  ti_sysbios_hal_Hwi_HwiProxy_startup__E__mangled__                         
1001c20b  ti_sysbios_knl_Idle_loop__E                                               
1001c213  ti_sysbios_family_arm_m3_Hwi_doTaskRestore__I                             
1001c219  HwiP_restore                                                              
1001c219  ti_sysbios_family_arm_m3_Hwi_restoreFxn__E                                
1001c21f  ti_sysbios_gates_GateHwi_leave__E                                         
1001c22b  ti_sysbios_knl_Queue_Instance_init__E                                     
1001c231  ti_sysbios_knl_Queue_elemClear__E                                         
1001c237  ti_sysbios_knl_Swi_Module_startup__E                                      
1001c23d  ti_sysbios_knl_Swi_startup__E                                             
1001c243  ti_sysbios_knl_Task_enable__E                                             
1001c249  ti_sysbios_BIOS_RtsGateProxy_enter__E                                     
1001c24d  ti_sysbios_BIOS_RtsGateProxy_leave__E                                     
1001c251  ti_sysbios_family_arm_cc26xx_Timer_getExpiredTicks__E                     
1001c255  ti_sysbios_family_arm_cc26xx_Timer_getPeriod__E                           
1001c259  ti_sysbios_family_arm_cc26xx_Timer_setPeriod__E                           
1001c25d  ti_sysbios_family_arm_m3_Hwi_delete                                       
1001c261  ti_sysbios_family_arm_m3_Hwi_destruct                                     
1001c265  ti_sysbios_family_arm_m3_TaskSupport_Module__startupDone__S               
1001c265  ti_sysbios_knl_Task_SupportProxy_Module__startupDone__S__mangled__        
1001c269  ti_sysbios_gates_GateHwi_query__E                                         
1001c269  xdc_runtime_Main_Module_GateProxy_query__E                                
1001c269  xdc_runtime_System_Module_GateProxy_query__E                              
1001c269  xdc_runtime_System_Module_GateProxy_query__E__mangled__                   
1001c26d  ti_sysbios_gates_GateMutex_delete                                         
1001c271  ti_sysbios_gates_GateMutex_destruct                                       
1001c275  ti_sysbios_BIOS_RtsGateProxy_query__E                                     
1001c275  ti_sysbios_BIOS_RtsGateProxy_query__E__mangled__                          
1001c275  ti_sysbios_gates_GateMutex_query__E                                       
1001c275  ti_sysbios_heaps_HeapMem_Module_GateProxy_query__E                        
1001c275  ti_sysbios_heaps_HeapMem_Module_GateProxy_query__E__mangled__             
1001c279  ti_sysbios_hal_Hwi_HwiProxy_Module__startupDone__S                        
1001c27d  ti_sysbios_hal_Hwi_HwiProxy_delete                                        
1001c281  ti_sysbios_hal_Hwi_HwiProxy_disableInterrupt__E                           
1001c281  ti_sysbios_hal_Hwi_disableInterrupt__E                                    
1001c281  ti_sysbios_hal_Hwi_disableInterrupt__E                                    
1001c285  ti_sysbios_hal_Hwi_HwiProxy_enableInterrupt__E                            
1001c285  ti_sysbios_hal_Hwi_enableInterrupt__E                                     
1001c285  ti_sysbios_hal_Hwi_enableInterrupt__E                                     
1001c289  ti_sysbios_hal_Hwi_HwiProxy_getStackInfo__E                               
1001c289  ti_sysbios_hal_Hwi_getStackInfo__E                                        
1001c289  ti_sysbios_hal_Hwi_getStackInfo__E                                        
1001c28d  ti_sysbios_hal_Hwi_HwiProxy_startup__E                                    
1001c28d  ti_sysbios_hal_Hwi_startup__E                                             
1001c28d  ti_sysbios_hal_Hwi_startup__E                                             
1001c291  ti_sysbios_hal_Hwi_HwiProxy_switchFromBootStack__E                        
1001c295  ti_sysbios_hal_Hwi_delete                                                 
1001c299  ti_sysbios_hal_Hwi_switchFromBootStack__E                                 
1001c299  ti_sysbios_hal_Hwi_switchFromBootStack__E                                 
1001c29d  ti_sysbios_heaps_HeapMem_Module_GateProxy_enter__E                        
1001c2a1  ti_sysbios_heaps_HeapMem_Module_GateProxy_leave__E                        
1001c2a5  ti_sysbios_heaps_HeapMem_isBlocking__E                                    
1001c2a9  ti_sysbios_knl_Clock_TimerProxy_Module__startupDone__S                    
1001c2ad  ti_sysbios_knl_Clock_TimerProxy_getExpiredTicks__E                        
1001c2b1  ti_sysbios_knl_Clock_TimerProxy_getPeriod__E                              
1001c2b5  ti_sysbios_knl_Clock_delete                                               
1001c2b9  ti_sysbios_knl_Clock_destruct                                             
1001c2bd  ti_sysbios_knl_Clock_removeI__E                                           
1001c2c1  ti_sysbios_knl_Clock_setTimeout__E                                        
1001c2c5  ti_sysbios_knl_Mailbox_delete                                             
1001c2c9  ti_sysbios_knl_Mailbox_destruct                                           
1001c2cd  ti_sysbios_knl_Queue_delete                                               
1001c2d1  ti_sysbios_knl_Queue_destruct                                             
1001c2d5  ti_sysbios_knl_Queue_head__E                                              
1001c2d9  ti_sysbios_knl_Queue_next__E                                              
1001c2dd  ti_sysbios_knl_Semaphore_delete                                           
1001c2e1  ti_sysbios_knl_Semaphore_destruct                                         
1001c2e5  ti_sysbios_knl_Swi_delete                                                 
1001c2e9  ti_sysbios_knl_Swi_destruct                                               
1001c2ed  ti_sysbios_knl_Swi_postInit__I                                            
1001c2f1  ti_sysbios_knl_Task_SupportProxy_Module__startupDone__S                   
1001c2f5  ti_sysbios_knl_Task_SupportProxy_getStackAlignment__E                     
1001c2f9  ti_sysbios_knl_Task_SupportProxy_start__E                                 
1001c2fd  ti_sysbios_knl_Task_SupportProxy_swap__E                                  
1001c301  ti_sysbios_knl_Task_delete                                                
1001c305  ti_sysbios_knl_Task_destruct                                              
1001c309  ti_sysbios_knl_Task_startup__E                                            
1001c30d  xdc_runtime_Startup_startMods__I                                          
1001c405  xdc_runtime_Core_createObject__I                                          
1001c487  xdc_runtime_Error_policySpin__E                                           
1001c489  xdc_runtime_Memory_alloc__E                                               
1001c4f9  xdc_runtime_Core_deleteObject__I                                          
1001c559  xdc_runtime_Startup_exec__E                                               
1001c5a9  xdc_runtime_Assert_raise__I                                               
1001c5f1  xdc_runtime_Core_assignParams__I                                          
1001c639  xdc_runtime_Core_constructObject__I                                       
1001c681  xdc_runtime_System_atexit__E                                              
1001c6b9  xdc_runtime_System_processAtExit__E                                       
1001c6ed  xdc_runtime_Core_assignLabel__I                                           
1001c71d  xdc_runtime_Text_cordText__E                                              
1001c749  xdc_runtime_System_abort__E                                               
1001c769  xdc_runtime_Error_raiseX__E                                               
1001c785  xdc_runtime_Memory_valloc__E                                              
1001c7a1  xdc_runtime_Core_destructObject__I                                        
1001c7b9  xdc_runtime_Error_check__E                                                
1001c7d1  xdc_runtime_System_exit__E                                                
1001c7e9  xdc_runtime_Text_ropeText__E                                              
1001c801  xdc_runtime_Memory_free__E                                                
1001c811  xdc_runtime_SysCallback_abort__E                                          
1001c821  xdc_runtime_SysCallback_exit__E                                           
1001c831  xdc_runtime_Timestamp_SupportProxy_get32__E                               
1001c831  xdc_runtime_Timestamp_get32__E                                            
1001c831  xdc_runtime_Timestamp_get32__E                                            
1001c841  xdc_runtime_Error_init__E                                                 
1001c84d  xdc_runtime_Memory_calloc__E                                              
1001c859  xdc_runtime_Memory_getMaxDefaultTypeAlign__E                              
1001c879  xdc_runtime_Gate_leaveSystem__E                                           
1001c87f  xdc_runtime_System_Module_startup__E                                      
1001c885  xdc_runtime_Gate_enterSystem__E                                           
1001c889  xdc_runtime_Memory_HeapProxy_alloc__E                                     
1001c88d  xdc_runtime_Memory_HeapProxy_free__E                                      
1001c891  xdc_runtime_System_Module_GateProxy_enter__E                              
1001c895  xdc_runtime_System_Module_GateProxy_leave__E                              
1001c899  xdc_runtime_System_abortSpin__E                                           
1001c89b  xdc_runtime_System_exitSpin__E                                            
1001c89d  ti_sysbios_family_arm_m3_Hwi_dispatch__I                                  
1001c96d  ti_sysbios_family_arm_m3_TaskSupport_buildTaskStack                       
1001c9b9  ti_sysbios_family_arm_m3_Hwi_initStacks__E                                
1001ca01  ti_sysbios_family_arm_m3_Hwi_excHandlerAsm__I                             
1001ca21  ti_sysbios_family_xxx_Hwi_switchAndRunFunc                                
1001ca3f  ti_sysbios_family_arm_m3_Hwi_pendSV__I                                    
1001ca57  ti_sysbios_family_arm_m3_Hwi_return                                       
1001ca59  ti_sysbios_family_arm_m3_TaskSupport_glue                                 
1001ca69  ti_sysbios_family_arm_m3_TaskSupport_swap__E                              
1001ca69  ti_sysbios_knl_Task_SupportProxy_swap__E__mangled__                       
1001ca71  ti_sysbios_knl_Task_swapReturn                                            
1001ca9b  ti_sysbios_rom_cortexm_cc26xx_CC26xx_getRevision__E                       
20000000  __start___llvm_prf_cnts                                                   
20000000  __stop___llvm_prf_cnts                                                    
20000000  ti_sysbios_family_arm_m3_Hwi_ramVectors                                   
20000100  ti_sysbios_knl_Task_Module__state__V                                      
20000144  ti_sysbios_family_arm_m3_Hwi_Module__state__V                             
20000178  ti_sysbios_knl_Clock_Module__state__V                                     
200001a4  ti_sysbios_BIOS_Module__state__V                                          
200001c8  ti_sysbios_knl_Swi_Module__state__V                                       
200001e4  ti_sysbios_family_arm_cc26xx_Timer_Module__state__V                       
200001ec  ti_sysbios_family_arm_cc26xx_TimestampProvider_Module__state__V           
200001f0  xdc_runtime_Startup_Module__state__V                                      
200001f8  xdc_runtime_System_Module__state__V                                       
20000200  xdc_runtime_Memory_Module__state__V                                       
20000208  morseReadTaskStack                                                        
20000a08  uartTaskStack                                                             
20001208  ti_sysbios_heaps_HeapMem_Instance_State_0_buf__A                          
20001608  mpuValues                                                                 
200018d8  ti_sysbios_knl_Task_Instance_State_0_stack__A                             
20001ad8  uartCC26XXObjects                                                         
20001c04  __CIOBUF_                                                                 
20001d24  i2cCC26xxObjects                                                          
20001e04  ti_sysbios_family_arm_m3_Hwi_dispatchTable                                
20001ecc  __TI_tmpnams                                                              
20001f6c  xdc_runtime_SysMin_Module_State_0_outbuf__A                               
20001fec  PIN_HandleTable                                                           
20002068  allMessages                                                               
20002120  uartCC26XXRingBuffer                                                      
20002178  SelfTest                                                                  
20002190  calculationValues                                                         
20002204  parmbuf                                                                   
2000220c  PIN_NumPins                                                               
20002210  aRes                                                                      
20002214  gRes                                                                      
20002218  i2c                                                                       
20002220  driverlib_release_0_47020                                                 
20002228  PowerCC26XX_module                                                        
20002338  _ftable                                                                   
20002428  _device                                                                   
200024a0  _stream                                                                   
200024f0  ti_sysbios_knl_Task_Object__table__V                                      
20002540  ti_sysbios_family_arm_cc26xx_Timer_Object__table__V                       
20002588  ti_sysbios_gates_GateMutex_Object__table__V                               
200025c0  ti_sysbios_knl_Swi_Module_State_0_readyQ__A                               
200025f0  ti_sysbios_knl_Swi_Object__table__V                                       
20002620  ti_sysbios_knl_Clock_Object__table__V                                     
20002640  ti_sysbios_knl_Task_Module_State_0_readyQ__A                              
20002660  programState                                                              
20002668  ambientLight                                                              
20002670  charToUart                                                                
20002674  startDataGathering                                                        
20002678  programState2                                                             
2000267c  ti_sysbios_family_arm_m3_Hwi_Object__table__V                             
20002694  ti_sysbios_heaps_HeapMem_Object__table__V                                 
200026ac  __TI_ft_end                                                               
200026b0  __aeabi_stdin                                                             
200026b4  __aeabi_stdout                                                            
200026b8  __aeabi_stderr                                                            
200026bc  __TI_cleanup_ptr                                                          
200026c0  __TI_dtors_ptr                                                            
200026c4  __TI_enable_exit_profile_output                                           
200026c8  accelBias                                                                 
200026d4  gyroBias                                                                  
200026e0  xdc_runtime_SysMin_Module__state__V                                       
200026ec  _lock                                                                     
200026f0  _unlock                                                                   
200026fc  buttonConfig                                                              
20002704  buzzerConfig                                                              
2000270c  ledConfig                                                                 
20002714  ti_sysbios_family_arm_m3_Hwi_Module__root__V                              
2000271c  ti_sysbios_gates_GateHwi_Module__root__V                                  
20002724  ti_sysbios_gates_GateMutex_Module__root__V                                
2000272c  ti_sysbios_hal_Hwi_Module__root__V                                        
20002734  ti_sysbios_heaps_HeapMem_Module__root__V                                  
2000273c  ti_sysbios_knl_Clock_Module__root__V                                      
20002744  ti_sysbios_knl_Mailbox_Module__root__V                                    
2000274c  ti_sysbios_knl_Queue_Module__root__V                                      
20002754  ti_sysbios_knl_Semaphore_Module__root__V                                  
2000275c  ti_sysbios_knl_Swi_Module__root__V                                        
20002764  ti_sysbios_knl_Task_Module__root__V                                       
2000276c  xdc_runtime_Registry_Module__state__V                                     
20002774  xdc_runtime_System_Module_State_0_atexitHandlers__A                       
20002780  errno                                                                     
20002784  main_func_sp                                                              
20002788  ti_sysbios_family_arm_m3_Hwi_Module_State_0_excContext__A                 
2000278c  ti_sysbios_family_arm_m3_Hwi_Module_State_0_excStack__A                   
20002790  ti_sysbios_knl_Task_Module_State_0_idleTask__A                            
20002794  Gscale                                                                    
20002795  Ascale                                                                    
20002796  ti_sysbios_family_arm_m3_Hwi_Module_State_0_excActive__A                  
20004d00  __stack                                                                   
20005000  __STACK_END                                                               
e000e000  ti_sysbios_family_arm_m3_Hwi_nvic                                         
ffffffff  __TI_pprof_out_hndl                                                       
ffffffff  __TI_prof_data_size                                                       
ffffffff  __TI_prof_data_start                                                      
ffffffff  __binit__                                                                 
ffffffff  __c_args__                                                                
ffffffff  binit                                                                     
UNDEFED   SHT$$INIT_ARRAY$$Base                                                     
UNDEFED   SHT$$INIT_ARRAY$$Limit                                                    

[892 symbols]
